
ctarget:     file format elf64-x86-64


Disassembly of section .init:

0000000000400c48 <_init>:
  400c48:	48 83 ec 08          	sub    $0x8,%rsp
  400c4c:	48 8b 05 a5 43 20 00 	mov    0x2043a5(%rip),%rax        # 604ff8 <__gmon_start__>
  400c53:	48 85 c0             	test   %rax,%rax
  400c56:	74 05                	je     400c5d <_init+0x15>
  400c58:	e8 43 02 00 00       	callq  400ea0 <__gmon_start__@plt>
  400c5d:	48 83 c4 08          	add    $0x8,%rsp
  400c61:	c3                   	retq   

Disassembly of section .plt:

0000000000400c70 <.plt>:
  400c70:	ff 35 92 43 20 00    	pushq  0x204392(%rip)        # 605008 <_GLOBAL_OFFSET_TABLE_+0x8>
  400c76:	ff 25 94 43 20 00    	jmpq   *0x204394(%rip)        # 605010 <_GLOBAL_OFFSET_TABLE_+0x10>
  400c7c:	0f 1f 40 00          	nopl   0x0(%rax)

0000000000400c80 <strcasecmp@plt>:
  400c80:	ff 25 92 43 20 00    	jmpq   *0x204392(%rip)        # 605018 <strcasecmp@GLIBC_2.2.5>
  400c86:	68 00 00 00 00       	pushq  $0x0
  400c8b:	e9 e0 ff ff ff       	jmpq   400c70 <.plt>

0000000000400c90 <__errno_location@plt>:
  400c90:	ff 25 8a 43 20 00    	jmpq   *0x20438a(%rip)        # 605020 <__errno_location@GLIBC_2.2.5>
  400c96:	68 01 00 00 00       	pushq  $0x1
  400c9b:	e9 d0 ff ff ff       	jmpq   400c70 <.plt>

0000000000400ca0 <srandom@plt>:
  400ca0:	ff 25 82 43 20 00    	jmpq   *0x204382(%rip)        # 605028 <srandom@GLIBC_2.2.5>
  400ca6:	68 02 00 00 00       	pushq  $0x2
  400cab:	e9 c0 ff ff ff       	jmpq   400c70 <.plt>

0000000000400cb0 <strncmp@plt>:
  400cb0:	ff 25 7a 43 20 00    	jmpq   *0x20437a(%rip)        # 605030 <strncmp@GLIBC_2.2.5>
  400cb6:	68 03 00 00 00       	pushq  $0x3
  400cbb:	e9 b0 ff ff ff       	jmpq   400c70 <.plt>

0000000000400cc0 <strcpy@plt>:
  400cc0:	ff 25 72 43 20 00    	jmpq   *0x204372(%rip)        # 605038 <strcpy@GLIBC_2.2.5>
  400cc6:	68 04 00 00 00       	pushq  $0x4
  400ccb:	e9 a0 ff ff ff       	jmpq   400c70 <.plt>

0000000000400cd0 <puts@plt>:
  400cd0:	ff 25 6a 43 20 00    	jmpq   *0x20436a(%rip)        # 605040 <puts@GLIBC_2.2.5>
  400cd6:	68 05 00 00 00       	pushq  $0x5
  400cdb:	e9 90 ff ff ff       	jmpq   400c70 <.plt>

0000000000400ce0 <write@plt>:
  400ce0:	ff 25 62 43 20 00    	jmpq   *0x204362(%rip)        # 605048 <write@GLIBC_2.2.5>
  400ce6:	68 06 00 00 00       	pushq  $0x6
  400ceb:	e9 80 ff ff ff       	jmpq   400c70 <.plt>

0000000000400cf0 <__stack_chk_fail@plt>:
  400cf0:	ff 25 5a 43 20 00    	jmpq   *0x20435a(%rip)        # 605050 <__stack_chk_fail@GLIBC_2.4>
  400cf6:	68 07 00 00 00       	pushq  $0x7
  400cfb:	e9 70 ff ff ff       	jmpq   400c70 <.plt>

0000000000400d00 <mmap@plt>:
  400d00:	ff 25 52 43 20 00    	jmpq   *0x204352(%rip)        # 605058 <mmap@GLIBC_2.2.5>
  400d06:	68 08 00 00 00       	pushq  $0x8
  400d0b:	e9 60 ff ff ff       	jmpq   400c70 <.plt>

0000000000400d10 <memset@plt>:
  400d10:	ff 25 4a 43 20 00    	jmpq   *0x20434a(%rip)        # 605060 <memset@GLIBC_2.2.5>
  400d16:	68 09 00 00 00       	pushq  $0x9
  400d1b:	e9 50 ff ff ff       	jmpq   400c70 <.plt>

0000000000400d20 <alarm@plt>:
  400d20:	ff 25 42 43 20 00    	jmpq   *0x204342(%rip)        # 605068 <alarm@GLIBC_2.2.5>
  400d26:	68 0a 00 00 00       	pushq  $0xa
  400d2b:	e9 40 ff ff ff       	jmpq   400c70 <.plt>

0000000000400d30 <close@plt>:
  400d30:	ff 25 3a 43 20 00    	jmpq   *0x20433a(%rip)        # 605070 <close@GLIBC_2.2.5>
  400d36:	68 0b 00 00 00       	pushq  $0xb
  400d3b:	e9 30 ff ff ff       	jmpq   400c70 <.plt>

0000000000400d40 <read@plt>:
  400d40:	ff 25 32 43 20 00    	jmpq   *0x204332(%rip)        # 605078 <read@GLIBC_2.2.5>
  400d46:	68 0c 00 00 00       	pushq  $0xc
  400d4b:	e9 20 ff ff ff       	jmpq   400c70 <.plt>

0000000000400d50 <__libc_start_main@plt>:
  400d50:	ff 25 2a 43 20 00    	jmpq   *0x20432a(%rip)        # 605080 <__libc_start_main@GLIBC_2.2.5>
  400d56:	68 0d 00 00 00       	pushq  $0xd
  400d5b:	e9 10 ff ff ff       	jmpq   400c70 <.plt>

0000000000400d60 <signal@plt>:
  400d60:	ff 25 22 43 20 00    	jmpq   *0x204322(%rip)        # 605088 <signal@GLIBC_2.2.5>
  400d66:	68 0e 00 00 00       	pushq  $0xe
  400d6b:	e9 00 ff ff ff       	jmpq   400c70 <.plt>

0000000000400d70 <gethostbyname@plt>:
  400d70:	ff 25 1a 43 20 00    	jmpq   *0x20431a(%rip)        # 605090 <gethostbyname@GLIBC_2.2.5>
  400d76:	68 0f 00 00 00       	pushq  $0xf
  400d7b:	e9 f0 fe ff ff       	jmpq   400c70 <.plt>

0000000000400d80 <__memmove_chk@plt>:
  400d80:	ff 25 12 43 20 00    	jmpq   *0x204312(%rip)        # 605098 <__memmove_chk@GLIBC_2.3.4>
  400d86:	68 10 00 00 00       	pushq  $0x10
  400d8b:	e9 e0 fe ff ff       	jmpq   400c70 <.plt>

0000000000400d90 <strtol@plt>:
  400d90:	ff 25 0a 43 20 00    	jmpq   *0x20430a(%rip)        # 6050a0 <strtol@GLIBC_2.2.5>
  400d96:	68 11 00 00 00       	pushq  $0x11
  400d9b:	e9 d0 fe ff ff       	jmpq   400c70 <.plt>

0000000000400da0 <memcpy@plt>:
  400da0:	ff 25 02 43 20 00    	jmpq   *0x204302(%rip)        # 6050a8 <memcpy@GLIBC_2.14>
  400da6:	68 12 00 00 00       	pushq  $0x12
  400dab:	e9 c0 fe ff ff       	jmpq   400c70 <.plt>

0000000000400db0 <time@plt>:
  400db0:	ff 25 fa 42 20 00    	jmpq   *0x2042fa(%rip)        # 6050b0 <time@GLIBC_2.2.5>
  400db6:	68 13 00 00 00       	pushq  $0x13
  400dbb:	e9 b0 fe ff ff       	jmpq   400c70 <.plt>

0000000000400dc0 <random@plt>:
  400dc0:	ff 25 f2 42 20 00    	jmpq   *0x2042f2(%rip)        # 6050b8 <random@GLIBC_2.2.5>
  400dc6:	68 14 00 00 00       	pushq  $0x14
  400dcb:	e9 a0 fe ff ff       	jmpq   400c70 <.plt>

0000000000400dd0 <_IO_getc@plt>:
  400dd0:	ff 25 ea 42 20 00    	jmpq   *0x2042ea(%rip)        # 6050c0 <_IO_getc@GLIBC_2.2.5>
  400dd6:	68 15 00 00 00       	pushq  $0x15
  400ddb:	e9 90 fe ff ff       	jmpq   400c70 <.plt>

0000000000400de0 <__isoc99_sscanf@plt>:
  400de0:	ff 25 e2 42 20 00    	jmpq   *0x2042e2(%rip)        # 6050c8 <__isoc99_sscanf@GLIBC_2.7>
  400de6:	68 16 00 00 00       	pushq  $0x16
  400deb:	e9 80 fe ff ff       	jmpq   400c70 <.plt>

0000000000400df0 <munmap@plt>:
  400df0:	ff 25 da 42 20 00    	jmpq   *0x2042da(%rip)        # 6050d0 <munmap@GLIBC_2.2.5>
  400df6:	68 17 00 00 00       	pushq  $0x17
  400dfb:	e9 70 fe ff ff       	jmpq   400c70 <.plt>

0000000000400e00 <__printf_chk@plt>:
  400e00:	ff 25 d2 42 20 00    	jmpq   *0x2042d2(%rip)        # 6050d8 <__printf_chk@GLIBC_2.3.4>
  400e06:	68 18 00 00 00       	pushq  $0x18
  400e0b:	e9 60 fe ff ff       	jmpq   400c70 <.plt>

0000000000400e10 <fopen@plt>:
  400e10:	ff 25 ca 42 20 00    	jmpq   *0x2042ca(%rip)        # 6050e0 <fopen@GLIBC_2.2.5>
  400e16:	68 19 00 00 00       	pushq  $0x19
  400e1b:	e9 50 fe ff ff       	jmpq   400c70 <.plt>

0000000000400e20 <getopt@plt>:
  400e20:	ff 25 c2 42 20 00    	jmpq   *0x2042c2(%rip)        # 6050e8 <getopt@GLIBC_2.2.5>
  400e26:	68 1a 00 00 00       	pushq  $0x1a
  400e2b:	e9 40 fe ff ff       	jmpq   400c70 <.plt>

0000000000400e30 <strtoul@plt>:
  400e30:	ff 25 ba 42 20 00    	jmpq   *0x2042ba(%rip)        # 6050f0 <strtoul@GLIBC_2.2.5>
  400e36:	68 1b 00 00 00       	pushq  $0x1b
  400e3b:	e9 30 fe ff ff       	jmpq   400c70 <.plt>

0000000000400e40 <gethostname@plt>:
  400e40:	ff 25 b2 42 20 00    	jmpq   *0x2042b2(%rip)        # 6050f8 <gethostname@GLIBC_2.2.5>
  400e46:	68 1c 00 00 00       	pushq  $0x1c
  400e4b:	e9 20 fe ff ff       	jmpq   400c70 <.plt>

0000000000400e50 <exit@plt>:
  400e50:	ff 25 aa 42 20 00    	jmpq   *0x2042aa(%rip)        # 605100 <exit@GLIBC_2.2.5>
  400e56:	68 1d 00 00 00       	pushq  $0x1d
  400e5b:	e9 10 fe ff ff       	jmpq   400c70 <.plt>

0000000000400e60 <connect@plt>:
  400e60:	ff 25 a2 42 20 00    	jmpq   *0x2042a2(%rip)        # 605108 <connect@GLIBC_2.2.5>
  400e66:	68 1e 00 00 00       	pushq  $0x1e
  400e6b:	e9 00 fe ff ff       	jmpq   400c70 <.plt>

0000000000400e70 <__fprintf_chk@plt>:
  400e70:	ff 25 9a 42 20 00    	jmpq   *0x20429a(%rip)        # 605110 <__fprintf_chk@GLIBC_2.3.4>
  400e76:	68 1f 00 00 00       	pushq  $0x1f
  400e7b:	e9 f0 fd ff ff       	jmpq   400c70 <.plt>

0000000000400e80 <__sprintf_chk@plt>:
  400e80:	ff 25 92 42 20 00    	jmpq   *0x204292(%rip)        # 605118 <__sprintf_chk@GLIBC_2.3.4>
  400e86:	68 20 00 00 00       	pushq  $0x20
  400e8b:	e9 e0 fd ff ff       	jmpq   400c70 <.plt>

0000000000400e90 <socket@plt>:
  400e90:	ff 25 8a 42 20 00    	jmpq   *0x20428a(%rip)        # 605120 <socket@GLIBC_2.2.5>
  400e96:	68 21 00 00 00       	pushq  $0x21
  400e9b:	e9 d0 fd ff ff       	jmpq   400c70 <.plt>

Disassembly of section .plt.got:

0000000000400ea0 <__gmon_start__@plt>:
  400ea0:	ff 25 52 41 20 00    	jmpq   *0x204152(%rip)        # 604ff8 <__gmon_start__>
  400ea6:	66 90                	xchg   %ax,%ax

Disassembly of section .text:

0000000000400eb0 <_start>:
  400eb0:	31 ed                	xor    %ebp,%ebp
  400eb2:	49 89 d1             	mov    %rdx,%r9
  400eb5:	5e                   	pop    %rsi
  400eb6:	48 89 e2             	mov    %rsp,%rdx
  400eb9:	48 83 e4 f0          	and    $0xfffffffffffffff0,%rsp
  400ebd:	50                   	push   %rax
  400ebe:	54                   	push   %rsp
  400ebf:	49 c7 c0 a0 2e 40 00 	mov    $0x402ea0,%r8
  400ec6:	48 c7 c1 30 2e 40 00 	mov    $0x402e30,%rcx
  400ecd:	48 c7 c7 b5 11 40 00 	mov    $0x4011b5,%rdi
  400ed4:	e8 77 fe ff ff       	callq  400d50 <__libc_start_main@plt>
  400ed9:	f4                   	hlt    
  400eda:	66 0f 1f 44 00 00    	nopw   0x0(%rax,%rax,1)

0000000000400ee0 <deregister_tm_clones>:
  400ee0:	b8 b7 54 60 00       	mov    $0x6054b7,%eax
  400ee5:	55                   	push   %rbp
  400ee6:	48 2d b0 54 60 00    	sub    $0x6054b0,%rax
  400eec:	48 83 f8 0e          	cmp    $0xe,%rax
  400ef0:	48 89 e5             	mov    %rsp,%rbp
  400ef3:	76 1b                	jbe    400f10 <deregister_tm_clones+0x30>
  400ef5:	b8 00 00 00 00       	mov    $0x0,%eax
  400efa:	48 85 c0             	test   %rax,%rax
  400efd:	74 11                	je     400f10 <deregister_tm_clones+0x30>
  400eff:	5d                   	pop    %rbp
  400f00:	bf b0 54 60 00       	mov    $0x6054b0,%edi
  400f05:	ff e0                	jmpq   *%rax
  400f07:	66 0f 1f 84 00 00 00 	nopw   0x0(%rax,%rax,1)
  400f0e:	00 00 
  400f10:	5d                   	pop    %rbp
  400f11:	c3                   	retq   
  400f12:	0f 1f 40 00          	nopl   0x0(%rax)
  400f16:	66 2e 0f 1f 84 00 00 	nopw   %cs:0x0(%rax,%rax,1)
  400f1d:	00 00 00 

0000000000400f20 <register_tm_clones>:
  400f20:	be b0 54 60 00       	mov    $0x6054b0,%esi
  400f25:	55                   	push   %rbp
  400f26:	48 81 ee b0 54 60 00 	sub    $0x6054b0,%rsi
  400f2d:	48 c1 fe 03          	sar    $0x3,%rsi
  400f31:	48 89 e5             	mov    %rsp,%rbp
  400f34:	48 89 f0             	mov    %rsi,%rax
  400f37:	48 c1 e8 3f          	shr    $0x3f,%rax
  400f3b:	48 01 c6             	add    %rax,%rsi
  400f3e:	48 d1 fe             	sar    %rsi
  400f41:	74 15                	je     400f58 <register_tm_clones+0x38>
  400f43:	b8 00 00 00 00       	mov    $0x0,%eax
  400f48:	48 85 c0             	test   %rax,%rax
  400f4b:	74 0b                	je     400f58 <register_tm_clones+0x38>
  400f4d:	5d                   	pop    %rbp
  400f4e:	bf b0 54 60 00       	mov    $0x6054b0,%edi
  400f53:	ff e0                	jmpq   *%rax
  400f55:	0f 1f 00             	nopl   (%rax)
  400f58:	5d                   	pop    %rbp
  400f59:	c3                   	retq   
  400f5a:	66 0f 1f 44 00 00    	nopw   0x0(%rax,%rax,1)

0000000000400f60 <__do_global_dtors_aux>:
  400f60:	80 3d 81 45 20 00 00 	cmpb   $0x0,0x204581(%rip)        # 6054e8 <completed.7585>
  400f67:	75 11                	jne    400f7a <__do_global_dtors_aux+0x1a>
  400f69:	55                   	push   %rbp
  400f6a:	48 89 e5             	mov    %rsp,%rbp
  400f6d:	e8 6e ff ff ff       	callq  400ee0 <deregister_tm_clones>
  400f72:	5d                   	pop    %rbp
  400f73:	c6 05 6e 45 20 00 01 	movb   $0x1,0x20456e(%rip)        # 6054e8 <completed.7585>
  400f7a:	f3 c3                	repz retq 
  400f7c:	0f 1f 40 00          	nopl   0x0(%rax)

0000000000400f80 <frame_dummy>:
  400f80:	bf 20 4e 60 00       	mov    $0x604e20,%edi
  400f85:	48 83 3f 00          	cmpq   $0x0,(%rdi)
  400f89:	75 05                	jne    400f90 <frame_dummy+0x10>
  400f8b:	eb 93                	jmp    400f20 <register_tm_clones>
  400f8d:	0f 1f 00             	nopl   (%rax)
  400f90:	b8 00 00 00 00       	mov    $0x0,%eax
  400f95:	48 85 c0             	test   %rax,%rax
  400f98:	74 f1                	je     400f8b <frame_dummy+0xb>
  400f9a:	55                   	push   %rbp
  400f9b:	48 89 e5             	mov    %rsp,%rbp
  400f9e:	ff d0                	callq  *%rax
  400fa0:	5d                   	pop    %rbp
  400fa1:	e9 7a ff ff ff       	jmpq   400f20 <register_tm_clones>

0000000000400fa6 <usage>:
  400fa6:	48 83 ec 08          	sub    $0x8,%rsp
  400faa:	48 89 fa             	mov    %rdi,%rdx
  400fad:	83 3d 74 45 20 00 00 	cmpl   $0x0,0x204574(%rip)        # 605528 <is_checker>
  400fb4:	74 3e                	je     400ff4 <usage+0x4e>
  400fb6:	be b8 2e 40 00       	mov    $0x402eb8,%esi
  400fbb:	bf 01 00 00 00       	mov    $0x1,%edi
  400fc0:	b8 00 00 00 00       	mov    $0x0,%eax
  400fc5:	e8 36 fe ff ff       	callq  400e00 <__printf_chk@plt>
  400fca:	bf f0 2e 40 00       	mov    $0x402ef0,%edi
  400fcf:	e8 fc fc ff ff       	callq  400cd0 <puts@plt>
  400fd4:	bf 68 30 40 00       	mov    $0x403068,%edi
  400fd9:	e8 f2 fc ff ff       	callq  400cd0 <puts@plt>
  400fde:	bf 18 2f 40 00       	mov    $0x402f18,%edi
  400fe3:	e8 e8 fc ff ff       	callq  400cd0 <puts@plt>
  400fe8:	bf 82 30 40 00       	mov    $0x403082,%edi
  400fed:	e8 de fc ff ff       	callq  400cd0 <puts@plt>
  400ff2:	eb 32                	jmp    401026 <usage+0x80>
  400ff4:	be 9e 30 40 00       	mov    $0x40309e,%esi
  400ff9:	bf 01 00 00 00       	mov    $0x1,%edi
  400ffe:	b8 00 00 00 00       	mov    $0x0,%eax
  401003:	e8 f8 fd ff ff       	callq  400e00 <__printf_chk@plt>
  401008:	bf 40 2f 40 00       	mov    $0x402f40,%edi
  40100d:	e8 be fc ff ff       	callq  400cd0 <puts@plt>
  401012:	bf 68 2f 40 00       	mov    $0x402f68,%edi
  401017:	e8 b4 fc ff ff       	callq  400cd0 <puts@plt>
  40101c:	bf bc 30 40 00       	mov    $0x4030bc,%edi
  401021:	e8 aa fc ff ff       	callq  400cd0 <puts@plt>
  401026:	bf 00 00 00 00       	mov    $0x0,%edi
  40102b:	e8 20 fe ff ff       	callq  400e50 <exit@plt>

0000000000401030 <initialize_target>:
  401030:	55                   	push   %rbp
  401031:	53                   	push   %rbx
  401032:	48 81 ec 18 21 00 00 	sub    $0x2118,%rsp
  401039:	89 f5                	mov    %esi,%ebp
  40103b:	64 48 8b 04 25 28 00 	mov    %fs:0x28,%rax
  401042:	00 00 
  401044:	48 89 84 24 08 21 00 	mov    %rax,0x2108(%rsp)
  40104b:	00 
  40104c:	31 c0                	xor    %eax,%eax
  40104e:	89 3d c4 44 20 00    	mov    %edi,0x2044c4(%rip)        # 605518 <check_level>
  401054:	8b 3d 0e 41 20 00    	mov    0x20410e(%rip),%edi        # 605168 <target_id>
  40105a:	e8 aa 1d 00 00       	callq  402e09 <gencookie>
  40105f:	89 05 bf 44 20 00    	mov    %eax,0x2044bf(%rip)        # 605524 <cookie>
  401065:	89 c7                	mov    %eax,%edi
  401067:	e8 9d 1d 00 00       	callq  402e09 <gencookie>
  40106c:	89 05 ae 44 20 00    	mov    %eax,0x2044ae(%rip)        # 605520 <authkey>
  401072:	8b 05 f0 40 20 00    	mov    0x2040f0(%rip),%eax        # 605168 <target_id>
  401078:	8d 78 01             	lea    0x1(%rax),%edi
  40107b:	e8 20 fc ff ff       	callq  400ca0 <srandom@plt>
  401080:	e8 3b fd ff ff       	callq  400dc0 <random@plt>
  401085:	89 c7                	mov    %eax,%edi
  401087:	e8 03 03 00 00       	callq  40138f <scramble>
  40108c:	89 c3                	mov    %eax,%ebx
  40108e:	85 ed                	test   %ebp,%ebp
  401090:	74 18                	je     4010aa <initialize_target+0x7a>
  401092:	bf 00 00 00 00       	mov    $0x0,%edi
  401097:	e8 14 fd ff ff       	callq  400db0 <time@plt>
  40109c:	89 c7                	mov    %eax,%edi
  40109e:	e8 fd fb ff ff       	callq  400ca0 <srandom@plt>
  4010a3:	e8 18 fd ff ff       	callq  400dc0 <random@plt>
  4010a8:	eb 05                	jmp    4010af <initialize_target+0x7f>
  4010aa:	b8 00 00 00 00       	mov    $0x0,%eax
  4010af:	01 c3                	add    %eax,%ebx
  4010b1:	0f b7 db             	movzwl %bx,%ebx
  4010b4:	8d 04 dd 00 01 00 00 	lea    0x100(,%rbx,8),%eax
  4010bb:	89 c0                	mov    %eax,%eax
  4010bd:	48 89 05 dc 43 20 00 	mov    %rax,0x2043dc(%rip)        # 6054a0 <buf_offset>
  4010c4:	c6 05 7d 50 20 00 63 	movb   $0x63,0x20507d(%rip)        # 606148 <target_prefix>
  4010cb:	83 3d d6 43 20 00 00 	cmpl   $0x0,0x2043d6(%rip)        # 6054a8 <notify>
  4010d2:	0f 84 bb 00 00 00    	je     401193 <initialize_target+0x163>
  4010d8:	83 3d 49 44 20 00 00 	cmpl   $0x0,0x204449(%rip)        # 605528 <is_checker>
  4010df:	0f 85 ae 00 00 00    	jne    401193 <initialize_target+0x163>
  4010e5:	be 00 01 00 00       	mov    $0x100,%esi
  4010ea:	48 89 e7             	mov    %rsp,%rdi
  4010ed:	e8 4e fd ff ff       	callq  400e40 <gethostname@plt>
  4010f2:	85 c0                	test   %eax,%eax
  4010f4:	74 25                	je     40111b <initialize_target+0xeb>
  4010f6:	bf 98 2f 40 00       	mov    $0x402f98,%edi
  4010fb:	e8 d0 fb ff ff       	callq  400cd0 <puts@plt>
  401100:	bf 08 00 00 00       	mov    $0x8,%edi
  401105:	e8 46 fd ff ff       	callq  400e50 <exit@plt>
  40110a:	48 89 e6             	mov    %rsp,%rsi
  40110d:	e8 6e fb ff ff       	callq  400c80 <strcasecmp@plt>
  401112:	85 c0                	test   %eax,%eax
  401114:	74 21                	je     401137 <initialize_target+0x107>
  401116:	83 c3 01             	add    $0x1,%ebx
  401119:	eb 05                	jmp    401120 <initialize_target+0xf0>
  40111b:	bb 00 00 00 00       	mov    $0x0,%ebx
  401120:	48 63 c3             	movslq %ebx,%rax
  401123:	48 8b 3c c5 80 51 60 	mov    0x605180(,%rax,8),%rdi
  40112a:	00 
  40112b:	48 85 ff             	test   %rdi,%rdi
  40112e:	75 da                	jne    40110a <initialize_target+0xda>
  401130:	b8 00 00 00 00       	mov    $0x0,%eax
  401135:	eb 05                	jmp    40113c <initialize_target+0x10c>
  401137:	b8 01 00 00 00       	mov    $0x1,%eax
  40113c:	85 c0                	test   %eax,%eax
  40113e:	75 1c                	jne    40115c <initialize_target+0x12c>
  401140:	48 89 e2             	mov    %rsp,%rdx
  401143:	be d0 2f 40 00       	mov    $0x402fd0,%esi
  401148:	bf 01 00 00 00       	mov    $0x1,%edi
  40114d:	e8 ae fc ff ff       	callq  400e00 <__printf_chk@plt>
  401152:	bf 08 00 00 00       	mov    $0x8,%edi
  401157:	e8 f4 fc ff ff       	callq  400e50 <exit@plt>
  40115c:	48 8d bc 24 00 01 00 	lea    0x100(%rsp),%rdi
  401163:	00 
  401164:	e8 0a 1a 00 00       	callq  402b73 <init_driver>
  401169:	85 c0                	test   %eax,%eax
  40116b:	79 26                	jns    401193 <initialize_target+0x163>
  40116d:	48 8d 94 24 00 01 00 	lea    0x100(%rsp),%rdx
  401174:	00 
  401175:	be 10 30 40 00       	mov    $0x403010,%esi
  40117a:	bf 01 00 00 00       	mov    $0x1,%edi
  40117f:	b8 00 00 00 00       	mov    $0x0,%eax
  401184:	e8 77 fc ff ff       	callq  400e00 <__printf_chk@plt>
  401189:	bf 08 00 00 00       	mov    $0x8,%edi
  40118e:	e8 bd fc ff ff       	callq  400e50 <exit@plt>
  401193:	48 8b 84 24 08 21 00 	mov    0x2108(%rsp),%rax
  40119a:	00 
  40119b:	64 48 33 04 25 28 00 	xor    %fs:0x28,%rax
  4011a2:	00 00 
  4011a4:	74 05                	je     4011ab <initialize_target+0x17b>
  4011a6:	e8 45 fb ff ff       	callq  400cf0 <__stack_chk_fail@plt>
  4011ab:	48 81 c4 18 21 00 00 	add    $0x2118,%rsp
  4011b2:	5b                   	pop    %rbx
  4011b3:	5d                   	pop    %rbp
  4011b4:	c3                   	retq   

00000000004011b5 <main>:
  4011b5:	41 56                	push   %r14
  4011b7:	41 55                	push   %r13
  4011b9:	41 54                	push   %r12
  4011bb:	55                   	push   %rbp
  4011bc:	53                   	push   %rbx
  4011bd:	41 89 fc             	mov    %edi,%r12d
  4011c0:	48 89 f3             	mov    %rsi,%rbx
  4011c3:	be ae 1e 40 00       	mov    $0x401eae,%esi
  4011c8:	bf 0b 00 00 00       	mov    $0xb,%edi
  4011cd:	e8 8e fb ff ff       	callq  400d60 <signal@plt>
  4011d2:	be 60 1e 40 00       	mov    $0x401e60,%esi
  4011d7:	bf 07 00 00 00       	mov    $0x7,%edi
  4011dc:	e8 7f fb ff ff       	callq  400d60 <signal@plt>
  4011e1:	be fc 1e 40 00       	mov    $0x401efc,%esi
  4011e6:	bf 04 00 00 00       	mov    $0x4,%edi
  4011eb:	e8 70 fb ff ff       	callq  400d60 <signal@plt>
  4011f0:	83 3d 31 43 20 00 00 	cmpl   $0x0,0x204331(%rip)        # 605528 <is_checker>
  4011f7:	74 20                	je     401219 <main+0x64>
  4011f9:	be 4a 1f 40 00       	mov    $0x401f4a,%esi
  4011fe:	bf 0e 00 00 00       	mov    $0xe,%edi
  401203:	e8 58 fb ff ff       	callq  400d60 <signal@plt>
  401208:	bf 05 00 00 00       	mov    $0x5,%edi
  40120d:	e8 0e fb ff ff       	callq  400d20 <alarm@plt>
  401212:	bd da 30 40 00       	mov    $0x4030da,%ebp
  401217:	eb 05                	jmp    40121e <main+0x69>
  401219:	bd d5 30 40 00       	mov    $0x4030d5,%ebp
  40121e:	48 8b 05 9b 42 20 00 	mov    0x20429b(%rip),%rax        # 6054c0 <stdin@@GLIBC_2.2.5>
  401225:	48 89 05 e4 42 20 00 	mov    %rax,0x2042e4(%rip)        # 605510 <infile>
  40122c:	41 bd 00 00 00 00    	mov    $0x0,%r13d
  401232:	41 be 00 00 00 00    	mov    $0x0,%r14d
  401238:	e9 c6 00 00 00       	jmpq   401303 <main+0x14e>
  40123d:	83 e8 61             	sub    $0x61,%eax
  401240:	3c 10                	cmp    $0x10,%al
  401242:	0f 87 9c 00 00 00    	ja     4012e4 <main+0x12f>
  401248:	0f b6 c0             	movzbl %al,%eax
  40124b:	ff 24 c5 20 31 40 00 	jmpq   *0x403120(,%rax,8)
  401252:	48 8b 3b             	mov    (%rbx),%rdi
  401255:	e8 4c fd ff ff       	callq  400fa6 <usage>
  40125a:	be d6 32 40 00       	mov    $0x4032d6,%esi
  40125f:	48 8b 3d 62 42 20 00 	mov    0x204262(%rip),%rdi        # 6054c8 <optarg@@GLIBC_2.2.5>
  401266:	e8 a5 fb ff ff       	callq  400e10 <fopen@plt>
  40126b:	48 89 05 9e 42 20 00 	mov    %rax,0x20429e(%rip)        # 605510 <infile>
  401272:	48 85 c0             	test   %rax,%rax
  401275:	0f 85 88 00 00 00    	jne    401303 <main+0x14e>
  40127b:	48 8b 0d 46 42 20 00 	mov    0x204246(%rip),%rcx        # 6054c8 <optarg@@GLIBC_2.2.5>
  401282:	ba e2 30 40 00       	mov    $0x4030e2,%edx
  401287:	be 01 00 00 00       	mov    $0x1,%esi
  40128c:	48 8b 3d 4d 42 20 00 	mov    0x20424d(%rip),%rdi        # 6054e0 <stderr@@GLIBC_2.2.5>
  401293:	e8 d8 fb ff ff       	callq  400e70 <__fprintf_chk@plt>
  401298:	b8 01 00 00 00       	mov    $0x1,%eax
  40129d:	e9 e4 00 00 00       	jmpq   401386 <main+0x1d1>
  4012a2:	ba 10 00 00 00       	mov    $0x10,%edx
  4012a7:	be 00 00 00 00       	mov    $0x0,%esi
  4012ac:	48 8b 3d 15 42 20 00 	mov    0x204215(%rip),%rdi        # 6054c8 <optarg@@GLIBC_2.2.5>
  4012b3:	e8 78 fb ff ff       	callq  400e30 <strtoul@plt>
  4012b8:	41 89 c6             	mov    %eax,%r14d
  4012bb:	eb 46                	jmp    401303 <main+0x14e>
  4012bd:	ba 0a 00 00 00       	mov    $0xa,%edx
  4012c2:	be 00 00 00 00       	mov    $0x0,%esi
  4012c7:	48 8b 3d fa 41 20 00 	mov    0x2041fa(%rip),%rdi        # 6054c8 <optarg@@GLIBC_2.2.5>
  4012ce:	e8 bd fa ff ff       	callq  400d90 <strtol@plt>
  4012d3:	41 89 c5             	mov    %eax,%r13d
  4012d6:	eb 2b                	jmp    401303 <main+0x14e>
  4012d8:	c7 05 c6 41 20 00 00 	movl   $0x0,0x2041c6(%rip)        # 6054a8 <notify>
  4012df:	00 00 00 
  4012e2:	eb 1f                	jmp    401303 <main+0x14e>
  4012e4:	0f be d2             	movsbl %dl,%edx
  4012e7:	be ff 30 40 00       	mov    $0x4030ff,%esi
  4012ec:	bf 01 00 00 00       	mov    $0x1,%edi
  4012f1:	b8 00 00 00 00       	mov    $0x0,%eax
  4012f6:	e8 05 fb ff ff       	callq  400e00 <__printf_chk@plt>
  4012fb:	48 8b 3b             	mov    (%rbx),%rdi
  4012fe:	e8 a3 fc ff ff       	callq  400fa6 <usage>
  401303:	48 89 ea             	mov    %rbp,%rdx
  401306:	48 89 de             	mov    %rbx,%rsi
  401309:	44 89 e7             	mov    %r12d,%edi
  40130c:	e8 0f fb ff ff       	callq  400e20 <getopt@plt>
  401311:	89 c2                	mov    %eax,%edx
  401313:	3c ff                	cmp    $0xff,%al
  401315:	0f 85 22 ff ff ff    	jne    40123d <main+0x88>
  40131b:	be 00 00 00 00       	mov    $0x0,%esi
  401320:	44 89 ef             	mov    %r13d,%edi
  401323:	e8 08 fd ff ff       	callq  401030 <initialize_target>
  401328:	83 3d f9 41 20 00 00 	cmpl   $0x0,0x2041f9(%rip)        # 605528 <is_checker>
  40132f:	74 2a                	je     40135b <main+0x1a6>
  401331:	44 3b 35 e8 41 20 00 	cmp    0x2041e8(%rip),%r14d        # 605520 <authkey>
  401338:	74 21                	je     40135b <main+0x1a6>
  40133a:	44 89 f2             	mov    %r14d,%edx
  40133d:	be 38 30 40 00       	mov    $0x403038,%esi
  401342:	bf 01 00 00 00       	mov    $0x1,%edi
  401347:	b8 00 00 00 00       	mov    $0x0,%eax
  40134c:	e8 af fa ff ff       	callq  400e00 <__printf_chk@plt>
  401351:	b8 00 00 00 00       	mov    $0x0,%eax
  401356:	e8 87 07 00 00       	callq  401ae2 <check_fail>
  40135b:	8b 15 c3 41 20 00    	mov    0x2041c3(%rip),%edx        # 605524 <cookie>
  401361:	be 12 31 40 00       	mov    $0x403112,%esi
  401366:	bf 01 00 00 00       	mov    $0x1,%edi
  40136b:	b8 00 00 00 00       	mov    $0x0,%eax
  401370:	e8 8b fa ff ff       	callq  400e00 <__printf_chk@plt>
  401375:	48 8b 3d 24 41 20 00 	mov    0x204124(%rip),%rdi        # 6054a0 <buf_offset>
  40137c:	e8 c9 0c 00 00       	callq  40204a <stable_launch>
  401381:	b8 00 00 00 00       	mov    $0x0,%eax
  401386:	5b                   	pop    %rbx
  401387:	5d                   	pop    %rbp
  401388:	41 5c                	pop    %r12
  40138a:	41 5d                	pop    %r13
  40138c:	41 5e                	pop    %r14
  40138e:	c3                   	retq   

000000000040138f <scramble>:
  40138f:	48 83 ec 38          	sub    $0x38,%rsp
  401393:	64 48 8b 04 25 28 00 	mov    %fs:0x28,%rax
  40139a:	00 00 
  40139c:	48 89 44 24 28       	mov    %rax,0x28(%rsp)
  4013a1:	31 c0                	xor    %eax,%eax
  4013a3:	eb 10                	jmp    4013b5 <scramble+0x26>
  4013a5:	69 d0 9a da 00 00    	imul   $0xda9a,%eax,%edx
  4013ab:	01 fa                	add    %edi,%edx
  4013ad:	89 c1                	mov    %eax,%ecx
  4013af:	89 14 8c             	mov    %edx,(%rsp,%rcx,4)
  4013b2:	83 c0 01             	add    $0x1,%eax
  4013b5:	83 f8 09             	cmp    $0x9,%eax
  4013b8:	76 eb                	jbe    4013a5 <scramble+0x16>
  4013ba:	8b 44 24 20          	mov    0x20(%rsp),%eax
  4013be:	69 c0 22 eb 00 00    	imul   $0xeb22,%eax,%eax
  4013c4:	89 44 24 20          	mov    %eax,0x20(%rsp)
  4013c8:	8b 44 24 20          	mov    0x20(%rsp),%eax
  4013cc:	69 c0 85 98 00 00    	imul   $0x9885,%eax,%eax
  4013d2:	89 44 24 20          	mov    %eax,0x20(%rsp)
  4013d6:	8b 04 24             	mov    (%rsp),%eax
  4013d9:	69 c0 6c 61 00 00    	imul   $0x616c,%eax,%eax
  4013df:	89 04 24             	mov    %eax,(%rsp)
  4013e2:	8b 44 24 08          	mov    0x8(%rsp),%eax
  4013e6:	69 c0 e9 19 00 00    	imul   $0x19e9,%eax,%eax
  4013ec:	89 44 24 08          	mov    %eax,0x8(%rsp)
  4013f0:	8b 44 24 04          	mov    0x4(%rsp),%eax
  4013f4:	69 c0 07 44 00 00    	imul   $0x4407,%eax,%eax
  4013fa:	89 44 24 04          	mov    %eax,0x4(%rsp)
  4013fe:	8b 44 24 0c          	mov    0xc(%rsp),%eax
  401402:	69 c0 10 17 00 00    	imul   $0x1710,%eax,%eax
  401408:	89 44 24 0c          	mov    %eax,0xc(%rsp)
  40140c:	8b 44 24 1c          	mov    0x1c(%rsp),%eax
  401410:	69 c0 44 72 00 00    	imul   $0x7244,%eax,%eax
  401416:	89 44 24 1c          	mov    %eax,0x1c(%rsp)
  40141a:	8b 04 24             	mov    (%rsp),%eax
  40141d:	69 c0 37 0a 00 00    	imul   $0xa37,%eax,%eax
  401423:	89 04 24             	mov    %eax,(%rsp)
  401426:	8b 44 24 10          	mov    0x10(%rsp),%eax
  40142a:	69 c0 96 2a 00 00    	imul   $0x2a96,%eax,%eax
  401430:	89 44 24 10          	mov    %eax,0x10(%rsp)
  401434:	8b 44 24 04          	mov    0x4(%rsp),%eax
  401438:	69 c0 8e 40 00 00    	imul   $0x408e,%eax,%eax
  40143e:	89 44 24 04          	mov    %eax,0x4(%rsp)
  401442:	8b 44 24 10          	mov    0x10(%rsp),%eax
  401446:	69 c0 cf f4 00 00    	imul   $0xf4cf,%eax,%eax
  40144c:	89 44 24 10          	mov    %eax,0x10(%rsp)
  401450:	8b 44 24 0c          	mov    0xc(%rsp),%eax
  401454:	69 c0 52 cc 00 00    	imul   $0xcc52,%eax,%eax
  40145a:	89 44 24 0c          	mov    %eax,0xc(%rsp)
  40145e:	8b 44 24 20          	mov    0x20(%rsp),%eax
  401462:	69 c0 03 81 00 00    	imul   $0x8103,%eax,%eax
  401468:	89 44 24 20          	mov    %eax,0x20(%rsp)
  40146c:	8b 04 24             	mov    (%rsp),%eax
  40146f:	69 c0 3c 6f 00 00    	imul   $0x6f3c,%eax,%eax
  401475:	89 04 24             	mov    %eax,(%rsp)
  401478:	8b 44 24 04          	mov    0x4(%rsp),%eax
  40147c:	69 c0 ac 8a 00 00    	imul   $0x8aac,%eax,%eax
  401482:	89 44 24 04          	mov    %eax,0x4(%rsp)
  401486:	8b 44 24 18          	mov    0x18(%rsp),%eax
  40148a:	69 c0 be e5 00 00    	imul   $0xe5be,%eax,%eax
  401490:	89 44 24 18          	mov    %eax,0x18(%rsp)
  401494:	8b 44 24 0c          	mov    0xc(%rsp),%eax
  401498:	69 c0 80 ea 00 00    	imul   $0xea80,%eax,%eax
  40149e:	89 44 24 0c          	mov    %eax,0xc(%rsp)
  4014a2:	8b 04 24             	mov    (%rsp),%eax
  4014a5:	69 c0 ae 19 00 00    	imul   $0x19ae,%eax,%eax
  4014ab:	89 04 24             	mov    %eax,(%rsp)
  4014ae:	8b 44 24 04          	mov    0x4(%rsp),%eax
  4014b2:	69 c0 ec be 00 00    	imul   $0xbeec,%eax,%eax
  4014b8:	89 44 24 04          	mov    %eax,0x4(%rsp)
  4014bc:	8b 44 24 04          	mov    0x4(%rsp),%eax
  4014c0:	69 c0 c7 e3 00 00    	imul   $0xe3c7,%eax,%eax
  4014c6:	89 44 24 04          	mov    %eax,0x4(%rsp)
  4014ca:	8b 44 24 14          	mov    0x14(%rsp),%eax
  4014ce:	69 c0 8d c9 00 00    	imul   $0xc98d,%eax,%eax
  4014d4:	89 44 24 14          	mov    %eax,0x14(%rsp)
  4014d8:	8b 44 24 0c          	mov    0xc(%rsp),%eax
  4014dc:	69 c0 aa f1 00 00    	imul   $0xf1aa,%eax,%eax
  4014e2:	89 44 24 0c          	mov    %eax,0xc(%rsp)
  4014e6:	8b 44 24 20          	mov    0x20(%rsp),%eax
  4014ea:	69 c0 48 e2 00 00    	imul   $0xe248,%eax,%eax
  4014f0:	89 44 24 20          	mov    %eax,0x20(%rsp)
  4014f4:	8b 04 24             	mov    (%rsp),%eax
  4014f7:	69 c0 27 46 00 00    	imul   $0x4627,%eax,%eax
  4014fd:	89 04 24             	mov    %eax,(%rsp)
  401500:	8b 04 24             	mov    (%rsp),%eax
  401503:	69 c0 58 b7 00 00    	imul   $0xb758,%eax,%eax
  401509:	89 04 24             	mov    %eax,(%rsp)
  40150c:	8b 44 24 24          	mov    0x24(%rsp),%eax
  401510:	69 c0 97 21 00 00    	imul   $0x2197,%eax,%eax
  401516:	89 44 24 24          	mov    %eax,0x24(%rsp)
  40151a:	8b 44 24 24          	mov    0x24(%rsp),%eax
  40151e:	69 c0 ce 44 00 00    	imul   $0x44ce,%eax,%eax
  401524:	89 44 24 24          	mov    %eax,0x24(%rsp)
  401528:	8b 44 24 24          	mov    0x24(%rsp),%eax
  40152c:	69 c0 a2 fd 00 00    	imul   $0xfda2,%eax,%eax
  401532:	89 44 24 24          	mov    %eax,0x24(%rsp)
  401536:	8b 44 24 04          	mov    0x4(%rsp),%eax
  40153a:	69 c0 ed 1c 00 00    	imul   $0x1ced,%eax,%eax
  401540:	89 44 24 04          	mov    %eax,0x4(%rsp)
  401544:	8b 44 24 1c          	mov    0x1c(%rsp),%eax
  401548:	69 c0 f5 d0 00 00    	imul   $0xd0f5,%eax,%eax
  40154e:	89 44 24 1c          	mov    %eax,0x1c(%rsp)
  401552:	8b 44 24 20          	mov    0x20(%rsp),%eax
  401556:	69 c0 6e 06 00 00    	imul   $0x66e,%eax,%eax
  40155c:	89 44 24 20          	mov    %eax,0x20(%rsp)
  401560:	8b 44 24 10          	mov    0x10(%rsp),%eax
  401564:	69 c0 67 1d 00 00    	imul   $0x1d67,%eax,%eax
  40156a:	89 44 24 10          	mov    %eax,0x10(%rsp)
  40156e:	8b 04 24             	mov    (%rsp),%eax
  401571:	69 c0 f7 34 00 00    	imul   $0x34f7,%eax,%eax
  401577:	89 04 24             	mov    %eax,(%rsp)
  40157a:	8b 44 24 24          	mov    0x24(%rsp),%eax
  40157e:	69 c0 db 3c 00 00    	imul   $0x3cdb,%eax,%eax
  401584:	89 44 24 24          	mov    %eax,0x24(%rsp)
  401588:	8b 04 24             	mov    (%rsp),%eax
  40158b:	69 c0 ad 6a 00 00    	imul   $0x6aad,%eax,%eax
  401591:	89 04 24             	mov    %eax,(%rsp)
  401594:	8b 44 24 18          	mov    0x18(%rsp),%eax
  401598:	69 c0 d7 f6 00 00    	imul   $0xf6d7,%eax,%eax
  40159e:	89 44 24 18          	mov    %eax,0x18(%rsp)
  4015a2:	8b 44 24 24          	mov    0x24(%rsp),%eax
  4015a6:	69 c0 79 1b 00 00    	imul   $0x1b79,%eax,%eax
  4015ac:	89 44 24 24          	mov    %eax,0x24(%rsp)
  4015b0:	8b 44 24 24          	mov    0x24(%rsp),%eax
  4015b4:	69 c0 0c 70 00 00    	imul   $0x700c,%eax,%eax
  4015ba:	89 44 24 24          	mov    %eax,0x24(%rsp)
  4015be:	8b 44 24 0c          	mov    0xc(%rsp),%eax
  4015c2:	69 c0 63 e4 00 00    	imul   $0xe463,%eax,%eax
  4015c8:	89 44 24 0c          	mov    %eax,0xc(%rsp)
  4015cc:	8b 44 24 10          	mov    0x10(%rsp),%eax
  4015d0:	69 c0 9f 0a 00 00    	imul   $0xa9f,%eax,%eax
  4015d6:	89 44 24 10          	mov    %eax,0x10(%rsp)
  4015da:	8b 44 24 10          	mov    0x10(%rsp),%eax
  4015de:	69 c0 e9 3c 00 00    	imul   $0x3ce9,%eax,%eax
  4015e4:	89 44 24 10          	mov    %eax,0x10(%rsp)
  4015e8:	8b 44 24 04          	mov    0x4(%rsp),%eax
  4015ec:	69 c0 e3 47 00 00    	imul   $0x47e3,%eax,%eax
  4015f2:	89 44 24 04          	mov    %eax,0x4(%rsp)
  4015f6:	8b 44 24 08          	mov    0x8(%rsp),%eax
  4015fa:	69 c0 1f 1a 00 00    	imul   $0x1a1f,%eax,%eax
  401600:	89 44 24 08          	mov    %eax,0x8(%rsp)
  401604:	8b 04 24             	mov    (%rsp),%eax
  401607:	69 c0 89 47 00 00    	imul   $0x4789,%eax,%eax
  40160d:	89 04 24             	mov    %eax,(%rsp)
  401610:	8b 44 24 10          	mov    0x10(%rsp),%eax
  401614:	69 c0 65 b2 00 00    	imul   $0xb265,%eax,%eax
  40161a:	89 44 24 10          	mov    %eax,0x10(%rsp)
  40161e:	8b 44 24 1c          	mov    0x1c(%rsp),%eax
  401622:	69 c0 a5 de 00 00    	imul   $0xdea5,%eax,%eax
  401628:	89 44 24 1c          	mov    %eax,0x1c(%rsp)
  40162c:	8b 44 24 08          	mov    0x8(%rsp),%eax
  401630:	69 c0 32 cf 00 00    	imul   $0xcf32,%eax,%eax
  401636:	89 44 24 08          	mov    %eax,0x8(%rsp)
  40163a:	8b 44 24 20          	mov    0x20(%rsp),%eax
  40163e:	69 c0 c2 a9 00 00    	imul   $0xa9c2,%eax,%eax
  401644:	89 44 24 20          	mov    %eax,0x20(%rsp)
  401648:	8b 44 24 1c          	mov    0x1c(%rsp),%eax
  40164c:	69 c0 22 33 00 00    	imul   $0x3322,%eax,%eax
  401652:	89 44 24 1c          	mov    %eax,0x1c(%rsp)
  401656:	8b 44 24 20          	mov    0x20(%rsp),%eax
  40165a:	69 c0 0d f8 00 00    	imul   $0xf80d,%eax,%eax
  401660:	89 44 24 20          	mov    %eax,0x20(%rsp)
  401664:	8b 44 24 08          	mov    0x8(%rsp),%eax
  401668:	69 c0 3f 07 00 00    	imul   $0x73f,%eax,%eax
  40166e:	89 44 24 08          	mov    %eax,0x8(%rsp)
  401672:	8b 44 24 10          	mov    0x10(%rsp),%eax
  401676:	69 c0 0a d2 00 00    	imul   $0xd20a,%eax,%eax
  40167c:	89 44 24 10          	mov    %eax,0x10(%rsp)
  401680:	8b 44 24 18          	mov    0x18(%rsp),%eax
  401684:	69 c0 66 d7 00 00    	imul   $0xd766,%eax,%eax
  40168a:	89 44 24 18          	mov    %eax,0x18(%rsp)
  40168e:	8b 44 24 04          	mov    0x4(%rsp),%eax
  401692:	69 c0 79 20 00 00    	imul   $0x2079,%eax,%eax
  401698:	89 44 24 04          	mov    %eax,0x4(%rsp)
  40169c:	8b 44 24 20          	mov    0x20(%rsp),%eax
  4016a0:	69 c0 4a f8 00 00    	imul   $0xf84a,%eax,%eax
  4016a6:	89 44 24 20          	mov    %eax,0x20(%rsp)
  4016aa:	8b 44 24 1c          	mov    0x1c(%rsp),%eax
  4016ae:	69 c0 85 57 00 00    	imul   $0x5785,%eax,%eax
  4016b4:	89 44 24 1c          	mov    %eax,0x1c(%rsp)
  4016b8:	8b 44 24 14          	mov    0x14(%rsp),%eax
  4016bc:	69 c0 4e 57 00 00    	imul   $0x574e,%eax,%eax
  4016c2:	89 44 24 14          	mov    %eax,0x14(%rsp)
  4016c6:	8b 44 24 14          	mov    0x14(%rsp),%eax
  4016ca:	69 c0 eb b6 00 00    	imul   $0xb6eb,%eax,%eax
  4016d0:	89 44 24 14          	mov    %eax,0x14(%rsp)
  4016d4:	8b 44 24 10          	mov    0x10(%rsp),%eax
  4016d8:	69 c0 ef e4 00 00    	imul   $0xe4ef,%eax,%eax
  4016de:	89 44 24 10          	mov    %eax,0x10(%rsp)
  4016e2:	8b 44 24 08          	mov    0x8(%rsp),%eax
  4016e6:	69 c0 79 a8 00 00    	imul   $0xa879,%eax,%eax
  4016ec:	89 44 24 08          	mov    %eax,0x8(%rsp)
  4016f0:	8b 44 24 18          	mov    0x18(%rsp),%eax
  4016f4:	69 c0 f2 16 00 00    	imul   $0x16f2,%eax,%eax
  4016fa:	89 44 24 18          	mov    %eax,0x18(%rsp)
  4016fe:	8b 44 24 14          	mov    0x14(%rsp),%eax
  401702:	69 c0 27 50 00 00    	imul   $0x5027,%eax,%eax
  401708:	89 44 24 14          	mov    %eax,0x14(%rsp)
  40170c:	8b 44 24 0c          	mov    0xc(%rsp),%eax
  401710:	69 c0 2a 83 00 00    	imul   $0x832a,%eax,%eax
  401716:	89 44 24 0c          	mov    %eax,0xc(%rsp)
  40171a:	8b 44 24 1c          	mov    0x1c(%rsp),%eax
  40171e:	69 c0 4f ea 00 00    	imul   $0xea4f,%eax,%eax
  401724:	89 44 24 1c          	mov    %eax,0x1c(%rsp)
  401728:	8b 44 24 18          	mov    0x18(%rsp),%eax
  40172c:	69 c0 86 e0 00 00    	imul   $0xe086,%eax,%eax
  401732:	89 44 24 18          	mov    %eax,0x18(%rsp)
  401736:	8b 44 24 04          	mov    0x4(%rsp),%eax
  40173a:	69 c0 1d 54 00 00    	imul   $0x541d,%eax,%eax
  401740:	89 44 24 04          	mov    %eax,0x4(%rsp)
  401744:	8b 44 24 04          	mov    0x4(%rsp),%eax
  401748:	69 c0 41 d1 00 00    	imul   $0xd141,%eax,%eax
  40174e:	89 44 24 04          	mov    %eax,0x4(%rsp)
  401752:	8b 44 24 0c          	mov    0xc(%rsp),%eax
  401756:	69 c0 7d 0a 00 00    	imul   $0xa7d,%eax,%eax
  40175c:	89 44 24 0c          	mov    %eax,0xc(%rsp)
  401760:	8b 44 24 08          	mov    0x8(%rsp),%eax
  401764:	69 c0 3e 68 00 00    	imul   $0x683e,%eax,%eax
  40176a:	89 44 24 08          	mov    %eax,0x8(%rsp)
  40176e:	8b 44 24 08          	mov    0x8(%rsp),%eax
  401772:	69 c0 70 64 00 00    	imul   $0x6470,%eax,%eax
  401778:	89 44 24 08          	mov    %eax,0x8(%rsp)
  40177c:	8b 44 24 18          	mov    0x18(%rsp),%eax
  401780:	69 c0 0e 56 00 00    	imul   $0x560e,%eax,%eax
  401786:	89 44 24 18          	mov    %eax,0x18(%rsp)
  40178a:	8b 44 24 08          	mov    0x8(%rsp),%eax
  40178e:	69 c0 bb 95 00 00    	imul   $0x95bb,%eax,%eax
  401794:	89 44 24 08          	mov    %eax,0x8(%rsp)
  401798:	8b 44 24 08          	mov    0x8(%rsp),%eax
  40179c:	69 c0 5f 5b 00 00    	imul   $0x5b5f,%eax,%eax
  4017a2:	89 44 24 08          	mov    %eax,0x8(%rsp)
  4017a6:	8b 44 24 20          	mov    0x20(%rsp),%eax
  4017aa:	69 c0 c9 1e 00 00    	imul   $0x1ec9,%eax,%eax
  4017b0:	89 44 24 20          	mov    %eax,0x20(%rsp)
  4017b4:	8b 44 24 20          	mov    0x20(%rsp),%eax
  4017b8:	69 c0 1a 4b 00 00    	imul   $0x4b1a,%eax,%eax
  4017be:	89 44 24 20          	mov    %eax,0x20(%rsp)
  4017c2:	8b 44 24 24          	mov    0x24(%rsp),%eax
  4017c6:	69 c0 a2 d7 00 00    	imul   $0xd7a2,%eax,%eax
  4017cc:	89 44 24 24          	mov    %eax,0x24(%rsp)
  4017d0:	8b 44 24 04          	mov    0x4(%rsp),%eax
  4017d4:	69 c0 60 4e 00 00    	imul   $0x4e60,%eax,%eax
  4017da:	89 44 24 04          	mov    %eax,0x4(%rsp)
  4017de:	8b 44 24 1c          	mov    0x1c(%rsp),%eax
  4017e2:	69 c0 32 48 00 00    	imul   $0x4832,%eax,%eax
  4017e8:	89 44 24 1c          	mov    %eax,0x1c(%rsp)
  4017ec:	8b 44 24 0c          	mov    0xc(%rsp),%eax
  4017f0:	69 c0 b3 21 00 00    	imul   $0x21b3,%eax,%eax
  4017f6:	89 44 24 0c          	mov    %eax,0xc(%rsp)
  4017fa:	8b 44 24 1c          	mov    0x1c(%rsp),%eax
  4017fe:	69 c0 d8 87 00 00    	imul   $0x87d8,%eax,%eax
  401804:	89 44 24 1c          	mov    %eax,0x1c(%rsp)
  401808:	8b 44 24 04          	mov    0x4(%rsp),%eax
  40180c:	69 c0 dd 14 00 00    	imul   $0x14dd,%eax,%eax
  401812:	89 44 24 04          	mov    %eax,0x4(%rsp)
  401816:	8b 04 24             	mov    (%rsp),%eax
  401819:	69 c0 ff e9 00 00    	imul   $0xe9ff,%eax,%eax
  40181f:	89 04 24             	mov    %eax,(%rsp)
  401822:	8b 44 24 18          	mov    0x18(%rsp),%eax
  401826:	69 c0 1c 02 00 00    	imul   $0x21c,%eax,%eax
  40182c:	89 44 24 18          	mov    %eax,0x18(%rsp)
  401830:	8b 44 24 08          	mov    0x8(%rsp),%eax
  401834:	69 c0 c5 8e 00 00    	imul   $0x8ec5,%eax,%eax
  40183a:	89 44 24 08          	mov    %eax,0x8(%rsp)
  40183e:	8b 04 24             	mov    (%rsp),%eax
  401841:	69 c0 73 1f 00 00    	imul   $0x1f73,%eax,%eax
  401847:	89 04 24             	mov    %eax,(%rsp)
  40184a:	8b 44 24 04          	mov    0x4(%rsp),%eax
  40184e:	69 c0 e2 ca 00 00    	imul   $0xcae2,%eax,%eax
  401854:	89 44 24 04          	mov    %eax,0x4(%rsp)
  401858:	ba 00 00 00 00       	mov    $0x0,%edx
  40185d:	b8 00 00 00 00       	mov    $0x0,%eax
  401862:	eb 0a                	jmp    40186e <scramble+0x4df>
  401864:	89 d1                	mov    %edx,%ecx
  401866:	8b 0c 8c             	mov    (%rsp,%rcx,4),%ecx
  401869:	01 c8                	add    %ecx,%eax
  40186b:	83 c2 01             	add    $0x1,%edx
  40186e:	83 fa 09             	cmp    $0x9,%edx
  401871:	76 f1                	jbe    401864 <scramble+0x4d5>
  401873:	48 8b 74 24 28       	mov    0x28(%rsp),%rsi
  401878:	64 48 33 34 25 28 00 	xor    %fs:0x28,%rsi
  40187f:	00 00 
  401881:	74 05                	je     401888 <scramble+0x4f9>
  401883:	e8 68 f4 ff ff       	callq  400cf0 <__stack_chk_fail@plt>
  401888:	48 83 c4 38          	add    $0x38,%rsp
  40188c:	c3                   	retq   

000000000040188d <getbuf>:
  40188d:	48 83 ec 28          	sub    $0x28,%rsp
  401891:	48 89 e7             	mov    %rsp,%rdi
  401894:	e8 7e 02 00 00       	callq  401b17 <Gets>
  401899:	b8 01 00 00 00       	mov    $0x1,%eax
  40189e:	48 83 c4 28          	add    $0x28,%rsp
  4018a2:	c3                   	retq   

00000000004018a3 <touch1>:
  4018a3:	48 83 ec 08          	sub    $0x8,%rsp
  4018a7:	c7 05 6b 3c 20 00 01 	movl   $0x1,0x203c6b(%rip)        # 60551c <vlevel>
  4018ae:	00 00 00 
  4018b1:	bf 1c 33 40 00       	mov    $0x40331c,%edi
  4018b6:	e8 15 f4 ff ff       	callq  400cd0 <puts@plt>
  4018bb:	bf 01 00 00 00       	mov    $0x1,%edi
  4018c0:	e8 97 04 00 00       	callq  401d5c <validate>
  4018c5:	bf 00 00 00 00       	mov    $0x0,%edi
  4018ca:	e8 81 f5 ff ff       	callq  400e50 <exit@plt>

00000000004018cf <touch2>:
  4018cf:	48 83 ec 08          	sub    $0x8,%rsp
  4018d3:	89 fa                	mov    %edi,%edx
  4018d5:	c7 05 3d 3c 20 00 02 	movl   $0x2,0x203c3d(%rip)        # 60551c <vlevel>
  4018dc:	00 00 00 
  4018df:	39 3d 3f 3c 20 00    	cmp    %edi,0x203c3f(%rip)        # 605524 <cookie>
  4018e5:	75 20                	jne    401907 <touch2+0x38>
  4018e7:	be 40 33 40 00       	mov    $0x403340,%esi
  4018ec:	bf 01 00 00 00       	mov    $0x1,%edi
  4018f1:	b8 00 00 00 00       	mov    $0x0,%eax
  4018f6:	e8 05 f5 ff ff       	callq  400e00 <__printf_chk@plt>
  4018fb:	bf 02 00 00 00       	mov    $0x2,%edi
  401900:	e8 57 04 00 00       	callq  401d5c <validate>
  401905:	eb 1e                	jmp    401925 <touch2+0x56>
  401907:	be 68 33 40 00       	mov    $0x403368,%esi
  40190c:	bf 01 00 00 00       	mov    $0x1,%edi
  401911:	b8 00 00 00 00       	mov    $0x0,%eax
  401916:	e8 e5 f4 ff ff       	callq  400e00 <__printf_chk@plt>
  40191b:	bf 02 00 00 00       	mov    $0x2,%edi
  401920:	e8 13 05 00 00       	callq  401e38 <fail>
  401925:	bf 00 00 00 00       	mov    $0x0,%edi
  40192a:	e8 21 f5 ff ff       	callq  400e50 <exit@plt>

000000000040192f <hexmatch>:
  40192f:	41 54                	push   %r12
  401931:	55                   	push   %rbp
  401932:	53                   	push   %rbx
  401933:	48 83 c4 80          	add    $0xffffffffffffff80,%rsp
  401937:	89 fd                	mov    %edi,%ebp
  401939:	48 89 f3             	mov    %rsi,%rbx
  40193c:	64 48 8b 04 25 28 00 	mov    %fs:0x28,%rax
  401943:	00 00 
  401945:	48 89 44 24 78       	mov    %rax,0x78(%rsp)
  40194a:	31 c0                	xor    %eax,%eax
  40194c:	e8 6f f4 ff ff       	callq  400dc0 <random@plt>
  401951:	48 89 c1             	mov    %rax,%rcx
  401954:	48 ba 0b d7 a3 70 3d 	movabs $0xa3d70a3d70a3d70b,%rdx
  40195b:	0a d7 a3 
  40195e:	48 f7 ea             	imul   %rdx
  401961:	48 01 ca             	add    %rcx,%rdx
  401964:	48 c1 fa 06          	sar    $0x6,%rdx
  401968:	48 89 c8             	mov    %rcx,%rax
  40196b:	48 c1 f8 3f          	sar    $0x3f,%rax
  40196f:	48 29 c2             	sub    %rax,%rdx
  401972:	48 8d 04 92          	lea    (%rdx,%rdx,4),%rax
  401976:	48 8d 14 80          	lea    (%rax,%rax,4),%rdx
  40197a:	48 8d 04 95 00 00 00 	lea    0x0(,%rdx,4),%rax
  401981:	00 
  401982:	48 29 c1             	sub    %rax,%rcx
  401985:	4c 8d 24 0c          	lea    (%rsp,%rcx,1),%r12
  401989:	41 89 e8             	mov    %ebp,%r8d
  40198c:	b9 39 33 40 00       	mov    $0x403339,%ecx
  401991:	48 c7 c2 ff ff ff ff 	mov    $0xffffffffffffffff,%rdx
  401998:	be 01 00 00 00       	mov    $0x1,%esi
  40199d:	4c 89 e7             	mov    %r12,%rdi
  4019a0:	b8 00 00 00 00       	mov    $0x0,%eax
  4019a5:	e8 d6 f4 ff ff       	callq  400e80 <__sprintf_chk@plt>
  4019aa:	ba 09 00 00 00       	mov    $0x9,%edx
  4019af:	4c 89 e6             	mov    %r12,%rsi
  4019b2:	48 89 df             	mov    %rbx,%rdi
  4019b5:	e8 f6 f2 ff ff       	callq  400cb0 <strncmp@plt>
  4019ba:	85 c0                	test   %eax,%eax
  4019bc:	0f 94 c0             	sete   %al
  4019bf:	48 8b 5c 24 78       	mov    0x78(%rsp),%rbx
  4019c4:	64 48 33 1c 25 28 00 	xor    %fs:0x28,%rbx
  4019cb:	00 00 
  4019cd:	74 05                	je     4019d4 <hexmatch+0xa5>
  4019cf:	e8 1c f3 ff ff       	callq  400cf0 <__stack_chk_fail@plt>
  4019d4:	0f b6 c0             	movzbl %al,%eax
  4019d7:	48 83 ec 80          	sub    $0xffffffffffffff80,%rsp
  4019db:	5b                   	pop    %rbx
  4019dc:	5d                   	pop    %rbp
  4019dd:	41 5c                	pop    %r12
  4019df:	c3                   	retq   

00000000004019e0 <touch3>:
  4019e0:	53                   	push   %rbx
  4019e1:	48 89 fb             	mov    %rdi,%rbx
  4019e4:	c7 05 2e 3b 20 00 03 	movl   $0x3,0x203b2e(%rip)        # 60551c <vlevel>
  4019eb:	00 00 00 
  4019ee:	48 89 fe             	mov    %rdi,%rsi
  4019f1:	8b 3d 2d 3b 20 00    	mov    0x203b2d(%rip),%edi        # 605524 <cookie>
  4019f7:	e8 33 ff ff ff       	callq  40192f <hexmatch>
  4019fc:	85 c0                	test   %eax,%eax
  4019fe:	74 23                	je     401a23 <touch3+0x43>
  401a00:	48 89 da             	mov    %rbx,%rdx
  401a03:	be 90 33 40 00       	mov    $0x403390,%esi
  401a08:	bf 01 00 00 00       	mov    $0x1,%edi
  401a0d:	b8 00 00 00 00       	mov    $0x0,%eax
  401a12:	e8 e9 f3 ff ff       	callq  400e00 <__printf_chk@plt>
  401a17:	bf 03 00 00 00       	mov    $0x3,%edi
  401a1c:	e8 3b 03 00 00       	callq  401d5c <validate>
  401a21:	eb 21                	jmp    401a44 <touch3+0x64>
  401a23:	48 89 da             	mov    %rbx,%rdx
  401a26:	be b8 33 40 00       	mov    $0x4033b8,%esi
  401a2b:	bf 01 00 00 00       	mov    $0x1,%edi
  401a30:	b8 00 00 00 00       	mov    $0x0,%eax
  401a35:	e8 c6 f3 ff ff       	callq  400e00 <__printf_chk@plt>
  401a3a:	bf 03 00 00 00       	mov    $0x3,%edi
  401a3f:	e8 f4 03 00 00       	callq  401e38 <fail>
  401a44:	bf 00 00 00 00       	mov    $0x0,%edi
  401a49:	e8 02 f4 ff ff       	callq  400e50 <exit@plt>

0000000000401a4e <test>:
  401a4e:	48 83 ec 08          	sub    $0x8,%rsp
  401a52:	b8 00 00 00 00       	mov    $0x0,%eax
  401a57:	e8 31 fe ff ff       	callq  40188d <getbuf>
  401a5c:	89 c2                	mov    %eax,%edx
  401a5e:	be e0 33 40 00       	mov    $0x4033e0,%esi
  401a63:	bf 01 00 00 00       	mov    $0x1,%edi
  401a68:	b8 00 00 00 00       	mov    $0x0,%eax
  401a6d:	e8 8e f3 ff ff       	callq  400e00 <__printf_chk@plt>
  401a72:	48 83 c4 08          	add    $0x8,%rsp
  401a76:	c3                   	retq   

0000000000401a77 <save_char>:
  401a77:	8b 05 c7 46 20 00    	mov    0x2046c7(%rip),%eax        # 606144 <gets_cnt>
  401a7d:	3d ff 03 00 00       	cmp    $0x3ff,%eax
  401a82:	7f 49                	jg     401acd <save_char+0x56>
  401a84:	8d 14 40             	lea    (%rax,%rax,2),%edx
  401a87:	89 f9                	mov    %edi,%ecx
  401a89:	c0 e9 04             	shr    $0x4,%cl
  401a8c:	83 e1 0f             	and    $0xf,%ecx
  401a8f:	0f b6 b1 00 37 40 00 	movzbl 0x403700(%rcx),%esi
  401a96:	48 63 ca             	movslq %edx,%rcx
  401a99:	40 88 b1 40 55 60 00 	mov    %sil,0x605540(%rcx)
  401aa0:	8d 4a 01             	lea    0x1(%rdx),%ecx
  401aa3:	83 e7 0f             	and    $0xf,%edi
  401aa6:	0f b6 b7 00 37 40 00 	movzbl 0x403700(%rdi),%esi
  401aad:	48 63 c9             	movslq %ecx,%rcx
  401ab0:	40 88 b1 40 55 60 00 	mov    %sil,0x605540(%rcx)
  401ab7:	83 c2 02             	add    $0x2,%edx
  401aba:	48 63 d2             	movslq %edx,%rdx
  401abd:	c6 82 40 55 60 00 20 	movb   $0x20,0x605540(%rdx)
  401ac4:	83 c0 01             	add    $0x1,%eax
  401ac7:	89 05 77 46 20 00    	mov    %eax,0x204677(%rip)        # 606144 <gets_cnt>
  401acd:	f3 c3                	repz retq 

0000000000401acf <save_term>:
  401acf:	8b 05 6f 46 20 00    	mov    0x20466f(%rip),%eax        # 606144 <gets_cnt>
  401ad5:	8d 04 40             	lea    (%rax,%rax,2),%eax
  401ad8:	48 98                	cltq   
  401ada:	c6 80 40 55 60 00 00 	movb   $0x0,0x605540(%rax)
  401ae1:	c3                   	retq   

0000000000401ae2 <check_fail>:
  401ae2:	48 83 ec 08          	sub    $0x8,%rsp
  401ae6:	0f be 15 5b 46 20 00 	movsbl 0x20465b(%rip),%edx        # 606148 <target_prefix>
  401aed:	41 b8 40 55 60 00    	mov    $0x605540,%r8d
  401af3:	8b 0d 1f 3a 20 00    	mov    0x203a1f(%rip),%ecx        # 605518 <check_level>
  401af9:	be 03 34 40 00       	mov    $0x403403,%esi
  401afe:	bf 01 00 00 00       	mov    $0x1,%edi
  401b03:	b8 00 00 00 00       	mov    $0x0,%eax
  401b08:	e8 f3 f2 ff ff       	callq  400e00 <__printf_chk@plt>
  401b0d:	bf 01 00 00 00       	mov    $0x1,%edi
  401b12:	e8 39 f3 ff ff       	callq  400e50 <exit@plt>

0000000000401b17 <Gets>:
  401b17:	41 54                	push   %r12
  401b19:	55                   	push   %rbp
  401b1a:	53                   	push   %rbx
  401b1b:	49 89 fc             	mov    %rdi,%r12
  401b1e:	c7 05 1c 46 20 00 00 	movl   $0x0,0x20461c(%rip)        # 606144 <gets_cnt>
  401b25:	00 00 00 
  401b28:	48 89 fb             	mov    %rdi,%rbx
  401b2b:	eb 11                	jmp    401b3e <Gets+0x27>
  401b2d:	48 8d 6b 01          	lea    0x1(%rbx),%rbp
  401b31:	88 03                	mov    %al,(%rbx)
  401b33:	0f b6 f8             	movzbl %al,%edi
  401b36:	e8 3c ff ff ff       	callq  401a77 <save_char>
  401b3b:	48 89 eb             	mov    %rbp,%rbx
  401b3e:	48 8b 3d cb 39 20 00 	mov    0x2039cb(%rip),%rdi        # 605510 <infile>
  401b45:	e8 86 f2 ff ff       	callq  400dd0 <_IO_getc@plt>
  401b4a:	83 f8 ff             	cmp    $0xffffffff,%eax
  401b4d:	74 05                	je     401b54 <Gets+0x3d>
  401b4f:	83 f8 0a             	cmp    $0xa,%eax
  401b52:	75 d9                	jne    401b2d <Gets+0x16>
  401b54:	c6 03 00             	movb   $0x0,(%rbx)
  401b57:	b8 00 00 00 00       	mov    $0x0,%eax
  401b5c:	e8 6e ff ff ff       	callq  401acf <save_term>
  401b61:	4c 89 e0             	mov    %r12,%rax
  401b64:	5b                   	pop    %rbx
  401b65:	5d                   	pop    %rbp
  401b66:	41 5c                	pop    %r12
  401b68:	c3                   	retq   

0000000000401b69 <notify_server>:
  401b69:	53                   	push   %rbx
  401b6a:	48 81 ec 10 40 00 00 	sub    $0x4010,%rsp
  401b71:	64 48 8b 04 25 28 00 	mov    %fs:0x28,%rax
  401b78:	00 00 
  401b7a:	48 89 84 24 08 40 00 	mov    %rax,0x4008(%rsp)
  401b81:	00 
  401b82:	31 c0                	xor    %eax,%eax
  401b84:	83 3d 9d 39 20 00 00 	cmpl   $0x0,0x20399d(%rip)        # 605528 <is_checker>
  401b8b:	0f 85 aa 01 00 00    	jne    401d3b <notify_server+0x1d2>
  401b91:	89 fb                	mov    %edi,%ebx
  401b93:	8b 05 ab 45 20 00    	mov    0x2045ab(%rip),%eax        # 606144 <gets_cnt>
  401b99:	83 c0 64             	add    $0x64,%eax
  401b9c:	3d 00 20 00 00       	cmp    $0x2000,%eax
  401ba1:	7e 1e                	jle    401bc1 <notify_server+0x58>
  401ba3:	be 38 35 40 00       	mov    $0x403538,%esi
  401ba8:	bf 01 00 00 00       	mov    $0x1,%edi
  401bad:	b8 00 00 00 00       	mov    $0x0,%eax
  401bb2:	e8 49 f2 ff ff       	callq  400e00 <__printf_chk@plt>
  401bb7:	bf 01 00 00 00       	mov    $0x1,%edi
  401bbc:	e8 8f f2 ff ff       	callq  400e50 <exit@plt>
  401bc1:	0f be 05 80 45 20 00 	movsbl 0x204580(%rip),%eax        # 606148 <target_prefix>
  401bc8:	83 3d d9 38 20 00 00 	cmpl   $0x0,0x2038d9(%rip)        # 6054a8 <notify>
  401bcf:	74 08                	je     401bd9 <notify_server+0x70>
  401bd1:	8b 15 49 39 20 00    	mov    0x203949(%rip),%edx        # 605520 <authkey>
  401bd7:	eb 05                	jmp    401bde <notify_server+0x75>
  401bd9:	ba ff ff ff ff       	mov    $0xffffffff,%edx
  401bde:	85 db                	test   %ebx,%ebx
  401be0:	74 08                	je     401bea <notify_server+0x81>
  401be2:	41 b9 19 34 40 00    	mov    $0x403419,%r9d
  401be8:	eb 06                	jmp    401bf0 <notify_server+0x87>
  401bea:	41 b9 1e 34 40 00    	mov    $0x40341e,%r9d
  401bf0:	68 40 55 60 00       	pushq  $0x605540
  401bf5:	56                   	push   %rsi
  401bf6:	50                   	push   %rax
  401bf7:	52                   	push   %rdx
  401bf8:	44 8b 05 69 35 20 00 	mov    0x203569(%rip),%r8d        # 605168 <target_id>
  401bff:	b9 23 34 40 00       	mov    $0x403423,%ecx
  401c04:	ba 00 20 00 00       	mov    $0x2000,%edx
  401c09:	be 01 00 00 00       	mov    $0x1,%esi
  401c0e:	48 8d 7c 24 20       	lea    0x20(%rsp),%rdi
  401c13:	b8 00 00 00 00       	mov    $0x0,%eax
  401c18:	e8 63 f2 ff ff       	callq  400e80 <__sprintf_chk@plt>
  401c1d:	48 83 c4 20          	add    $0x20,%rsp
  401c21:	83 3d 80 38 20 00 00 	cmpl   $0x0,0x203880(%rip)        # 6054a8 <notify>
  401c28:	0f 84 81 00 00 00    	je     401caf <notify_server+0x146>
  401c2e:	85 db                	test   %ebx,%ebx
  401c30:	74 6e                	je     401ca0 <notify_server+0x137>
  401c32:	4c 8d 8c 24 00 20 00 	lea    0x2000(%rsp),%r9
  401c39:	00 
  401c3a:	41 b8 00 00 00 00    	mov    $0x0,%r8d
  401c40:	48 89 e1             	mov    %rsp,%rcx
  401c43:	48 8b 15 26 35 20 00 	mov    0x203526(%rip),%rdx        # 605170 <lab>
  401c4a:	48 8b 35 27 35 20 00 	mov    0x203527(%rip),%rsi        # 605178 <course>
  401c51:	48 8b 3d 08 35 20 00 	mov    0x203508(%rip),%rdi        # 605160 <user_id>
  401c58:	e8 09 11 00 00       	callq  402d66 <driver_post>
  401c5d:	85 c0                	test   %eax,%eax
  401c5f:	79 26                	jns    401c87 <notify_server+0x11e>
  401c61:	48 8d 94 24 00 20 00 	lea    0x2000(%rsp),%rdx
  401c68:	00 
  401c69:	be 3f 34 40 00       	mov    $0x40343f,%esi
  401c6e:	bf 01 00 00 00       	mov    $0x1,%edi
  401c73:	b8 00 00 00 00       	mov    $0x0,%eax
  401c78:	e8 83 f1 ff ff       	callq  400e00 <__printf_chk@plt>
  401c7d:	bf 01 00 00 00       	mov    $0x1,%edi
  401c82:	e8 c9 f1 ff ff       	callq  400e50 <exit@plt>
  401c87:	bf 68 35 40 00       	mov    $0x403568,%edi
  401c8c:	e8 3f f0 ff ff       	callq  400cd0 <puts@plt>
  401c91:	bf 4b 34 40 00       	mov    $0x40344b,%edi
  401c96:	e8 35 f0 ff ff       	callq  400cd0 <puts@plt>
  401c9b:	e9 9b 00 00 00       	jmpq   401d3b <notify_server+0x1d2>
  401ca0:	bf 55 34 40 00       	mov    $0x403455,%edi
  401ca5:	e8 26 f0 ff ff       	callq  400cd0 <puts@plt>
  401caa:	e9 8c 00 00 00       	jmpq   401d3b <notify_server+0x1d2>
  401caf:	85 db                	test   %ebx,%ebx
  401cb1:	74 07                	je     401cba <notify_server+0x151>
  401cb3:	ba 19 34 40 00       	mov    $0x403419,%edx
  401cb8:	eb 05                	jmp    401cbf <notify_server+0x156>
  401cba:	ba 1e 34 40 00       	mov    $0x40341e,%edx
  401cbf:	be a0 35 40 00       	mov    $0x4035a0,%esi
  401cc4:	bf 01 00 00 00       	mov    $0x1,%edi
  401cc9:	b8 00 00 00 00       	mov    $0x0,%eax
  401cce:	e8 2d f1 ff ff       	callq  400e00 <__printf_chk@plt>
  401cd3:	48 8b 15 86 34 20 00 	mov    0x203486(%rip),%rdx        # 605160 <user_id>
  401cda:	be 5c 34 40 00       	mov    $0x40345c,%esi
  401cdf:	bf 01 00 00 00       	mov    $0x1,%edi
  401ce4:	b8 00 00 00 00       	mov    $0x0,%eax
  401ce9:	e8 12 f1 ff ff       	callq  400e00 <__printf_chk@plt>
  401cee:	48 8b 15 83 34 20 00 	mov    0x203483(%rip),%rdx        # 605178 <course>
  401cf5:	be 69 34 40 00       	mov    $0x403469,%esi
  401cfa:	bf 01 00 00 00       	mov    $0x1,%edi
  401cff:	b8 00 00 00 00       	mov    $0x0,%eax
  401d04:	e8 f7 f0 ff ff       	callq  400e00 <__printf_chk@plt>
  401d09:	48 8b 15 60 34 20 00 	mov    0x203460(%rip),%rdx        # 605170 <lab>
  401d10:	be 75 34 40 00       	mov    $0x403475,%esi
  401d15:	bf 01 00 00 00       	mov    $0x1,%edi
  401d1a:	b8 00 00 00 00       	mov    $0x0,%eax
  401d1f:	e8 dc f0 ff ff       	callq  400e00 <__printf_chk@plt>
  401d24:	48 89 e2             	mov    %rsp,%rdx
  401d27:	be 7e 34 40 00       	mov    $0x40347e,%esi
  401d2c:	bf 01 00 00 00       	mov    $0x1,%edi
  401d31:	b8 00 00 00 00       	mov    $0x0,%eax
  401d36:	e8 c5 f0 ff ff       	callq  400e00 <__printf_chk@plt>
  401d3b:	48 8b 84 24 08 40 00 	mov    0x4008(%rsp),%rax
  401d42:	00 
  401d43:	64 48 33 04 25 28 00 	xor    %fs:0x28,%rax
  401d4a:	00 00 
  401d4c:	74 05                	je     401d53 <notify_server+0x1ea>
  401d4e:	e8 9d ef ff ff       	callq  400cf0 <__stack_chk_fail@plt>
  401d53:	48 81 c4 10 40 00 00 	add    $0x4010,%rsp
  401d5a:	5b                   	pop    %rbx
  401d5b:	c3                   	retq   

0000000000401d5c <validate>:
  401d5c:	4c 8d 54 24 08       	lea    0x8(%rsp),%r10
  401d61:	48 83 e4 f0          	and    $0xfffffffffffffff0,%rsp
  401d65:	41 ff 72 f8          	pushq  -0x8(%r10)
  401d69:	55                   	push   %rbp
  401d6a:	48 89 e5             	mov    %rsp,%rbp
  401d6d:	41 52                	push   %r10
  401d6f:	53                   	push   %rbx
  401d70:	89 fb                	mov    %edi,%ebx
  401d72:	83 3d af 37 20 00 00 	cmpl   $0x0,0x2037af(%rip)        # 605528 <is_checker>
  401d79:	74 6b                	je     401de6 <validate+0x8a>
  401d7b:	39 3d 9b 37 20 00    	cmp    %edi,0x20379b(%rip)        # 60551c <vlevel>
  401d81:	74 14                	je     401d97 <validate+0x3b>
  401d83:	bf 8a 34 40 00       	mov    $0x40348a,%edi
  401d88:	e8 43 ef ff ff       	callq  400cd0 <puts@plt>
  401d8d:	b8 00 00 00 00       	mov    $0x0,%eax
  401d92:	e8 4b fd ff ff       	callq  401ae2 <check_fail>
  401d97:	8b 15 7b 37 20 00    	mov    0x20377b(%rip),%edx        # 605518 <check_level>
  401d9d:	39 d7                	cmp    %edx,%edi
  401d9f:	74 20                	je     401dc1 <validate+0x65>
  401da1:	89 f9                	mov    %edi,%ecx
  401da3:	be c8 35 40 00       	mov    $0x4035c8,%esi
  401da8:	bf 01 00 00 00       	mov    $0x1,%edi
  401dad:	b8 00 00 00 00       	mov    $0x0,%eax
  401db2:	e8 49 f0 ff ff       	callq  400e00 <__printf_chk@plt>
  401db7:	b8 00 00 00 00       	mov    $0x0,%eax
  401dbc:	e8 21 fd ff ff       	callq  401ae2 <check_fail>
  401dc1:	0f be 15 80 43 20 00 	movsbl 0x204380(%rip),%edx        # 606148 <target_prefix>
  401dc8:	41 b8 40 55 60 00    	mov    $0x605540,%r8d
  401dce:	89 f9                	mov    %edi,%ecx
  401dd0:	be a8 34 40 00       	mov    $0x4034a8,%esi
  401dd5:	bf 01 00 00 00       	mov    $0x1,%edi
  401dda:	b8 00 00 00 00       	mov    $0x0,%eax
  401ddf:	e8 1c f0 ff ff       	callq  400e00 <__printf_chk@plt>
  401de4:	eb 49                	jmp    401e2f <validate+0xd3>
  401de6:	3b 3d 30 37 20 00    	cmp    0x203730(%rip),%edi        # 60551c <vlevel>
  401dec:	74 18                	je     401e06 <validate+0xaa>
  401dee:	bf 8a 34 40 00       	mov    $0x40348a,%edi
  401df3:	e8 d8 ee ff ff       	callq  400cd0 <puts@plt>
  401df8:	89 de                	mov    %ebx,%esi
  401dfa:	bf 00 00 00 00       	mov    $0x0,%edi
  401dff:	e8 65 fd ff ff       	callq  401b69 <notify_server>
  401e04:	eb 29                	jmp    401e2f <validate+0xd3>
  401e06:	0f be 0d 3b 43 20 00 	movsbl 0x20433b(%rip),%ecx        # 606148 <target_prefix>
  401e0d:	89 fa                	mov    %edi,%edx
  401e0f:	be f0 35 40 00       	mov    $0x4035f0,%esi
  401e14:	bf 01 00 00 00       	mov    $0x1,%edi
  401e19:	b8 00 00 00 00       	mov    $0x0,%eax
  401e1e:	e8 dd ef ff ff       	callq  400e00 <__printf_chk@plt>
  401e23:	89 de                	mov    %ebx,%esi
  401e25:	bf 01 00 00 00       	mov    $0x1,%edi
  401e2a:	e8 3a fd ff ff       	callq  401b69 <notify_server>
  401e2f:	5b                   	pop    %rbx
  401e30:	41 5a                	pop    %r10
  401e32:	5d                   	pop    %rbp
  401e33:	49 8d 62 f8          	lea    -0x8(%r10),%rsp
  401e37:	c3                   	retq   

0000000000401e38 <fail>:
  401e38:	48 83 ec 08          	sub    $0x8,%rsp
  401e3c:	83 3d e5 36 20 00 00 	cmpl   $0x0,0x2036e5(%rip)        # 605528 <is_checker>
  401e43:	74 0a                	je     401e4f <fail+0x17>
  401e45:	b8 00 00 00 00       	mov    $0x0,%eax
  401e4a:	e8 93 fc ff ff       	callq  401ae2 <check_fail>
  401e4f:	89 fe                	mov    %edi,%esi
  401e51:	bf 00 00 00 00       	mov    $0x0,%edi
  401e56:	e8 0e fd ff ff       	callq  401b69 <notify_server>
  401e5b:	48 83 c4 08          	add    $0x8,%rsp
  401e5f:	c3                   	retq   

0000000000401e60 <bushandler>:
  401e60:	48 83 ec 08          	sub    $0x8,%rsp
  401e64:	83 3d bd 36 20 00 00 	cmpl   $0x0,0x2036bd(%rip)        # 605528 <is_checker>
  401e6b:	74 14                	je     401e81 <bushandler+0x21>
  401e6d:	bf bd 34 40 00       	mov    $0x4034bd,%edi
  401e72:	e8 59 ee ff ff       	callq  400cd0 <puts@plt>
  401e77:	b8 00 00 00 00       	mov    $0x0,%eax
  401e7c:	e8 61 fc ff ff       	callq  401ae2 <check_fail>
  401e81:	bf 28 36 40 00       	mov    $0x403628,%edi
  401e86:	e8 45 ee ff ff       	callq  400cd0 <puts@plt>
  401e8b:	bf c7 34 40 00       	mov    $0x4034c7,%edi
  401e90:	e8 3b ee ff ff       	callq  400cd0 <puts@plt>
  401e95:	be 00 00 00 00       	mov    $0x0,%esi
  401e9a:	bf 00 00 00 00       	mov    $0x0,%edi
  401e9f:	e8 c5 fc ff ff       	callq  401b69 <notify_server>
  401ea4:	bf 01 00 00 00       	mov    $0x1,%edi
  401ea9:	e8 a2 ef ff ff       	callq  400e50 <exit@plt>

0000000000401eae <seghandler>:
  401eae:	48 83 ec 08          	sub    $0x8,%rsp
  401eb2:	83 3d 6f 36 20 00 00 	cmpl   $0x0,0x20366f(%rip)        # 605528 <is_checker>
  401eb9:	74 14                	je     401ecf <seghandler+0x21>
  401ebb:	bf dd 34 40 00       	mov    $0x4034dd,%edi
  401ec0:	e8 0b ee ff ff       	callq  400cd0 <puts@plt>
  401ec5:	b8 00 00 00 00       	mov    $0x0,%eax
  401eca:	e8 13 fc ff ff       	callq  401ae2 <check_fail>
  401ecf:	bf 48 36 40 00       	mov    $0x403648,%edi
  401ed4:	e8 f7 ed ff ff       	callq  400cd0 <puts@plt>
  401ed9:	bf c7 34 40 00       	mov    $0x4034c7,%edi
  401ede:	e8 ed ed ff ff       	callq  400cd0 <puts@plt>
  401ee3:	be 00 00 00 00       	mov    $0x0,%esi
  401ee8:	bf 00 00 00 00       	mov    $0x0,%edi
  401eed:	e8 77 fc ff ff       	callq  401b69 <notify_server>
  401ef2:	bf 01 00 00 00       	mov    $0x1,%edi
  401ef7:	e8 54 ef ff ff       	callq  400e50 <exit@plt>

0000000000401efc <illegalhandler>:
  401efc:	48 83 ec 08          	sub    $0x8,%rsp
  401f00:	83 3d 21 36 20 00 00 	cmpl   $0x0,0x203621(%rip)        # 605528 <is_checker>
  401f07:	74 14                	je     401f1d <illegalhandler+0x21>
  401f09:	bf f0 34 40 00       	mov    $0x4034f0,%edi
  401f0e:	e8 bd ed ff ff       	callq  400cd0 <puts@plt>
  401f13:	b8 00 00 00 00       	mov    $0x0,%eax
  401f18:	e8 c5 fb ff ff       	callq  401ae2 <check_fail>
  401f1d:	bf 70 36 40 00       	mov    $0x403670,%edi
  401f22:	e8 a9 ed ff ff       	callq  400cd0 <puts@plt>
  401f27:	bf c7 34 40 00       	mov    $0x4034c7,%edi
  401f2c:	e8 9f ed ff ff       	callq  400cd0 <puts@plt>
  401f31:	be 00 00 00 00       	mov    $0x0,%esi
  401f36:	bf 00 00 00 00       	mov    $0x0,%edi
  401f3b:	e8 29 fc ff ff       	callq  401b69 <notify_server>
  401f40:	bf 01 00 00 00       	mov    $0x1,%edi
  401f45:	e8 06 ef ff ff       	callq  400e50 <exit@plt>

0000000000401f4a <sigalrmhandler>:
  401f4a:	48 83 ec 08          	sub    $0x8,%rsp
  401f4e:	83 3d d3 35 20 00 00 	cmpl   $0x0,0x2035d3(%rip)        # 605528 <is_checker>
  401f55:	74 14                	je     401f6b <sigalrmhandler+0x21>
  401f57:	bf 04 35 40 00       	mov    $0x403504,%edi
  401f5c:	e8 6f ed ff ff       	callq  400cd0 <puts@plt>
  401f61:	b8 00 00 00 00       	mov    $0x0,%eax
  401f66:	e8 77 fb ff ff       	callq  401ae2 <check_fail>
  401f6b:	ba 05 00 00 00       	mov    $0x5,%edx
  401f70:	be a0 36 40 00       	mov    $0x4036a0,%esi
  401f75:	bf 01 00 00 00       	mov    $0x1,%edi
  401f7a:	b8 00 00 00 00       	mov    $0x0,%eax
  401f7f:	e8 7c ee ff ff       	callq  400e00 <__printf_chk@plt>
  401f84:	be 00 00 00 00       	mov    $0x0,%esi
  401f89:	bf 00 00 00 00       	mov    $0x0,%edi
  401f8e:	e8 d6 fb ff ff       	callq  401b69 <notify_server>
  401f93:	bf 01 00 00 00       	mov    $0x1,%edi
  401f98:	e8 b3 ee ff ff       	callq  400e50 <exit@plt>

0000000000401f9d <launch>:
  401f9d:	55                   	push   %rbp
  401f9e:	48 89 e5             	mov    %rsp,%rbp
  401fa1:	48 83 ec 10          	sub    $0x10,%rsp
  401fa5:	48 89 fa             	mov    %rdi,%rdx
  401fa8:	64 48 8b 04 25 28 00 	mov    %fs:0x28,%rax
  401faf:	00 00 
  401fb1:	48 89 45 f8          	mov    %rax,-0x8(%rbp)
  401fb5:	31 c0                	xor    %eax,%eax
  401fb7:	48 8d 47 1e          	lea    0x1e(%rdi),%rax
  401fbb:	48 83 e0 f0          	and    $0xfffffffffffffff0,%rax
  401fbf:	48 29 c4             	sub    %rax,%rsp
  401fc2:	48 8d 7c 24 0f       	lea    0xf(%rsp),%rdi
  401fc7:	48 83 e7 f0          	and    $0xfffffffffffffff0,%rdi
  401fcb:	be f4 00 00 00       	mov    $0xf4,%esi
  401fd0:	e8 3b ed ff ff       	callq  400d10 <memset@plt>
  401fd5:	48 8b 05 e4 34 20 00 	mov    0x2034e4(%rip),%rax        # 6054c0 <stdin@@GLIBC_2.2.5>
  401fdc:	48 39 05 2d 35 20 00 	cmp    %rax,0x20352d(%rip)        # 605510 <infile>
  401fe3:	75 14                	jne    401ff9 <launch+0x5c>
  401fe5:	be 0c 35 40 00       	mov    $0x40350c,%esi
  401fea:	bf 01 00 00 00       	mov    $0x1,%edi
  401fef:	b8 00 00 00 00       	mov    $0x0,%eax
  401ff4:	e8 07 ee ff ff       	callq  400e00 <__printf_chk@plt>
  401ff9:	c7 05 19 35 20 00 00 	movl   $0x0,0x203519(%rip)        # 60551c <vlevel>
  402000:	00 00 00 
  402003:	b8 00 00 00 00       	mov    $0x0,%eax
  402008:	e8 41 fa ff ff       	callq  401a4e <test>
  40200d:	83 3d 14 35 20 00 00 	cmpl   $0x0,0x203514(%rip)        # 605528 <is_checker>
  402014:	74 14                	je     40202a <launch+0x8d>
  402016:	bf 19 35 40 00       	mov    $0x403519,%edi
  40201b:	e8 b0 ec ff ff       	callq  400cd0 <puts@plt>
  402020:	b8 00 00 00 00       	mov    $0x0,%eax
  402025:	e8 b8 fa ff ff       	callq  401ae2 <check_fail>
  40202a:	bf 24 35 40 00       	mov    $0x403524,%edi
  40202f:	e8 9c ec ff ff       	callq  400cd0 <puts@plt>
  402034:	48 8b 45 f8          	mov    -0x8(%rbp),%rax
  402038:	64 48 33 04 25 28 00 	xor    %fs:0x28,%rax
  40203f:	00 00 
  402041:	74 05                	je     402048 <launch+0xab>
  402043:	e8 a8 ec ff ff       	callq  400cf0 <__stack_chk_fail@plt>
  402048:	c9                   	leaveq 
  402049:	c3                   	retq   

000000000040204a <stable_launch>:
  40204a:	53                   	push   %rbx
  40204b:	48 89 3d b6 34 20 00 	mov    %rdi,0x2034b6(%rip)        # 605508 <global_offset>
  402052:	41 b9 00 00 00 00    	mov    $0x0,%r9d
  402058:	41 b8 00 00 00 00    	mov    $0x0,%r8d
  40205e:	b9 32 01 00 00       	mov    $0x132,%ecx
  402063:	ba 07 00 00 00       	mov    $0x7,%edx
  402068:	be 00 00 10 00       	mov    $0x100000,%esi
  40206d:	bf 00 60 58 55       	mov    $0x55586000,%edi
  402072:	e8 89 ec ff ff       	callq  400d00 <mmap@plt>
  402077:	48 89 c3             	mov    %rax,%rbx
  40207a:	48 3d 00 60 58 55    	cmp    $0x55586000,%rax
  402080:	74 37                	je     4020b9 <stable_launch+0x6f>
  402082:	be 00 00 10 00       	mov    $0x100000,%esi
  402087:	48 89 c7             	mov    %rax,%rdi
  40208a:	e8 61 ed ff ff       	callq  400df0 <munmap@plt>
  40208f:	b9 00 60 58 55       	mov    $0x55586000,%ecx
  402094:	ba d8 36 40 00       	mov    $0x4036d8,%edx
  402099:	be 01 00 00 00       	mov    $0x1,%esi
  40209e:	48 8b 3d 3b 34 20 00 	mov    0x20343b(%rip),%rdi        # 6054e0 <stderr@@GLIBC_2.2.5>
  4020a5:	b8 00 00 00 00       	mov    $0x0,%eax
  4020aa:	e8 c1 ed ff ff       	callq  400e70 <__fprintf_chk@plt>
  4020af:	bf 01 00 00 00       	mov    $0x1,%edi
  4020b4:	e8 97 ed ff ff       	callq  400e50 <exit@plt>
  4020b9:	48 8d 90 f8 ff 0f 00 	lea    0xffff8(%rax),%rdx
  4020c0:	48 89 15 89 40 20 00 	mov    %rdx,0x204089(%rip)        # 606150 <stack_top>
  4020c7:	48 89 e0             	mov    %rsp,%rax
  4020ca:	48 89 d4             	mov    %rdx,%rsp
  4020cd:	48 89 c2             	mov    %rax,%rdx
  4020d0:	48 89 15 29 34 20 00 	mov    %rdx,0x203429(%rip)        # 605500 <global_save_stack>
  4020d7:	48 8b 3d 2a 34 20 00 	mov    0x20342a(%rip),%rdi        # 605508 <global_offset>
  4020de:	e8 ba fe ff ff       	callq  401f9d <launch>
  4020e3:	48 8b 05 16 34 20 00 	mov    0x203416(%rip),%rax        # 605500 <global_save_stack>
  4020ea:	48 89 c4             	mov    %rax,%rsp
  4020ed:	be 00 00 10 00       	mov    $0x100000,%esi
  4020f2:	48 89 df             	mov    %rbx,%rdi
  4020f5:	e8 f6 ec ff ff       	callq  400df0 <munmap@plt>
  4020fa:	5b                   	pop    %rbx
  4020fb:	c3                   	retq   

00000000004020fc <rio_readinitb>:
  4020fc:	89 37                	mov    %esi,(%rdi)
  4020fe:	c7 47 04 00 00 00 00 	movl   $0x0,0x4(%rdi)
  402105:	48 8d 47 10          	lea    0x10(%rdi),%rax
  402109:	48 89 47 08          	mov    %rax,0x8(%rdi)
  40210d:	c3                   	retq   

000000000040210e <sigalrm_handler>:
  40210e:	48 83 ec 08          	sub    $0x8,%rsp
  402112:	b9 00 00 00 00       	mov    $0x0,%ecx
  402117:	ba 10 37 40 00       	mov    $0x403710,%edx
  40211c:	be 01 00 00 00       	mov    $0x1,%esi
  402121:	48 8b 3d b8 33 20 00 	mov    0x2033b8(%rip),%rdi        # 6054e0 <stderr@@GLIBC_2.2.5>
  402128:	b8 00 00 00 00       	mov    $0x0,%eax
  40212d:	e8 3e ed ff ff       	callq  400e70 <__fprintf_chk@plt>
  402132:	bf 01 00 00 00       	mov    $0x1,%edi
  402137:	e8 14 ed ff ff       	callq  400e50 <exit@plt>

000000000040213c <rio_writen>:
  40213c:	41 55                	push   %r13
  40213e:	41 54                	push   %r12
  402140:	55                   	push   %rbp
  402141:	53                   	push   %rbx
  402142:	48 83 ec 08          	sub    $0x8,%rsp
  402146:	41 89 fc             	mov    %edi,%r12d
  402149:	48 89 f5             	mov    %rsi,%rbp
  40214c:	49 89 d5             	mov    %rdx,%r13
  40214f:	48 89 d3             	mov    %rdx,%rbx
  402152:	eb 28                	jmp    40217c <rio_writen+0x40>
  402154:	48 89 da             	mov    %rbx,%rdx
  402157:	48 89 ee             	mov    %rbp,%rsi
  40215a:	44 89 e7             	mov    %r12d,%edi
  40215d:	e8 7e eb ff ff       	callq  400ce0 <write@plt>
  402162:	48 85 c0             	test   %rax,%rax
  402165:	7f 0f                	jg     402176 <rio_writen+0x3a>
  402167:	e8 24 eb ff ff       	callq  400c90 <__errno_location@plt>
  40216c:	83 38 04             	cmpl   $0x4,(%rax)
  40216f:	75 15                	jne    402186 <rio_writen+0x4a>
  402171:	b8 00 00 00 00       	mov    $0x0,%eax
  402176:	48 29 c3             	sub    %rax,%rbx
  402179:	48 01 c5             	add    %rax,%rbp
  40217c:	48 85 db             	test   %rbx,%rbx
  40217f:	75 d3                	jne    402154 <rio_writen+0x18>
  402181:	4c 89 e8             	mov    %r13,%rax
  402184:	eb 07                	jmp    40218d <rio_writen+0x51>
  402186:	48 c7 c0 ff ff ff ff 	mov    $0xffffffffffffffff,%rax
  40218d:	48 83 c4 08          	add    $0x8,%rsp
  402191:	5b                   	pop    %rbx
  402192:	5d                   	pop    %rbp
  402193:	41 5c                	pop    %r12
  402195:	41 5d                	pop    %r13
  402197:	c3                   	retq   

0000000000402198 <rio_read>:
  402198:	41 55                	push   %r13
  40219a:	41 54                	push   %r12
  40219c:	55                   	push   %rbp
  40219d:	53                   	push   %rbx
  40219e:	48 83 ec 08          	sub    $0x8,%rsp
  4021a2:	48 89 fb             	mov    %rdi,%rbx
  4021a5:	49 89 f5             	mov    %rsi,%r13
  4021a8:	49 89 d4             	mov    %rdx,%r12
  4021ab:	eb 2e                	jmp    4021db <rio_read+0x43>
  4021ad:	48 8d 6b 10          	lea    0x10(%rbx),%rbp
  4021b1:	8b 3b                	mov    (%rbx),%edi
  4021b3:	ba 00 20 00 00       	mov    $0x2000,%edx
  4021b8:	48 89 ee             	mov    %rbp,%rsi
  4021bb:	e8 80 eb ff ff       	callq  400d40 <read@plt>
  4021c0:	89 43 04             	mov    %eax,0x4(%rbx)
  4021c3:	85 c0                	test   %eax,%eax
  4021c5:	79 0c                	jns    4021d3 <rio_read+0x3b>
  4021c7:	e8 c4 ea ff ff       	callq  400c90 <__errno_location@plt>
  4021cc:	83 38 04             	cmpl   $0x4,(%rax)
  4021cf:	74 0a                	je     4021db <rio_read+0x43>
  4021d1:	eb 37                	jmp    40220a <rio_read+0x72>
  4021d3:	85 c0                	test   %eax,%eax
  4021d5:	74 3c                	je     402213 <rio_read+0x7b>
  4021d7:	48 89 6b 08          	mov    %rbp,0x8(%rbx)
  4021db:	8b 6b 04             	mov    0x4(%rbx),%ebp
  4021de:	85 ed                	test   %ebp,%ebp
  4021e0:	7e cb                	jle    4021ad <rio_read+0x15>
  4021e2:	89 e8                	mov    %ebp,%eax
  4021e4:	49 39 c4             	cmp    %rax,%r12
  4021e7:	77 03                	ja     4021ec <rio_read+0x54>
  4021e9:	44 89 e5             	mov    %r12d,%ebp
  4021ec:	4c 63 e5             	movslq %ebp,%r12
  4021ef:	48 8b 73 08          	mov    0x8(%rbx),%rsi
  4021f3:	4c 89 e2             	mov    %r12,%rdx
  4021f6:	4c 89 ef             	mov    %r13,%rdi
  4021f9:	e8 a2 eb ff ff       	callq  400da0 <memcpy@plt>
  4021fe:	4c 01 63 08          	add    %r12,0x8(%rbx)
  402202:	29 6b 04             	sub    %ebp,0x4(%rbx)
  402205:	4c 89 e0             	mov    %r12,%rax
  402208:	eb 0e                	jmp    402218 <rio_read+0x80>
  40220a:	48 c7 c0 ff ff ff ff 	mov    $0xffffffffffffffff,%rax
  402211:	eb 05                	jmp    402218 <rio_read+0x80>
  402213:	b8 00 00 00 00       	mov    $0x0,%eax
  402218:	48 83 c4 08          	add    $0x8,%rsp
  40221c:	5b                   	pop    %rbx
  40221d:	5d                   	pop    %rbp
  40221e:	41 5c                	pop    %r12
  402220:	41 5d                	pop    %r13
  402222:	c3                   	retq   

0000000000402223 <rio_readlineb>:
  402223:	41 55                	push   %r13
  402225:	41 54                	push   %r12
  402227:	55                   	push   %rbp
  402228:	53                   	push   %rbx
  402229:	48 83 ec 18          	sub    $0x18,%rsp
  40222d:	49 89 fd             	mov    %rdi,%r13
  402230:	48 89 f5             	mov    %rsi,%rbp
  402233:	49 89 d4             	mov    %rdx,%r12
  402236:	64 48 8b 04 25 28 00 	mov    %fs:0x28,%rax
  40223d:	00 00 
  40223f:	48 89 44 24 08       	mov    %rax,0x8(%rsp)
  402244:	31 c0                	xor    %eax,%eax
  402246:	bb 01 00 00 00       	mov    $0x1,%ebx
  40224b:	eb 3f                	jmp    40228c <rio_readlineb+0x69>
  40224d:	ba 01 00 00 00       	mov    $0x1,%edx
  402252:	48 8d 74 24 07       	lea    0x7(%rsp),%rsi
  402257:	4c 89 ef             	mov    %r13,%rdi
  40225a:	e8 39 ff ff ff       	callq  402198 <rio_read>
  40225f:	83 f8 01             	cmp    $0x1,%eax
  402262:	75 15                	jne    402279 <rio_readlineb+0x56>
  402264:	48 8d 45 01          	lea    0x1(%rbp),%rax
  402268:	0f b6 54 24 07       	movzbl 0x7(%rsp),%edx
  40226d:	88 55 00             	mov    %dl,0x0(%rbp)
  402270:	80 7c 24 07 0a       	cmpb   $0xa,0x7(%rsp)
  402275:	75 0e                	jne    402285 <rio_readlineb+0x62>
  402277:	eb 1a                	jmp    402293 <rio_readlineb+0x70>
  402279:	85 c0                	test   %eax,%eax
  40227b:	75 22                	jne    40229f <rio_readlineb+0x7c>
  40227d:	48 83 fb 01          	cmp    $0x1,%rbx
  402281:	75 13                	jne    402296 <rio_readlineb+0x73>
  402283:	eb 23                	jmp    4022a8 <rio_readlineb+0x85>
  402285:	48 83 c3 01          	add    $0x1,%rbx
  402289:	48 89 c5             	mov    %rax,%rbp
  40228c:	4c 39 e3             	cmp    %r12,%rbx
  40228f:	72 bc                	jb     40224d <rio_readlineb+0x2a>
  402291:	eb 03                	jmp    402296 <rio_readlineb+0x73>
  402293:	48 89 c5             	mov    %rax,%rbp
  402296:	c6 45 00 00          	movb   $0x0,0x0(%rbp)
  40229a:	48 89 d8             	mov    %rbx,%rax
  40229d:	eb 0e                	jmp    4022ad <rio_readlineb+0x8a>
  40229f:	48 c7 c0 ff ff ff ff 	mov    $0xffffffffffffffff,%rax
  4022a6:	eb 05                	jmp    4022ad <rio_readlineb+0x8a>
  4022a8:	b8 00 00 00 00       	mov    $0x0,%eax
  4022ad:	48 8b 4c 24 08       	mov    0x8(%rsp),%rcx
  4022b2:	64 48 33 0c 25 28 00 	xor    %fs:0x28,%rcx
  4022b9:	00 00 
  4022bb:	74 05                	je     4022c2 <rio_readlineb+0x9f>
  4022bd:	e8 2e ea ff ff       	callq  400cf0 <__stack_chk_fail@plt>
  4022c2:	48 83 c4 18          	add    $0x18,%rsp
  4022c6:	5b                   	pop    %rbx
  4022c7:	5d                   	pop    %rbp
  4022c8:	41 5c                	pop    %r12
  4022ca:	41 5d                	pop    %r13
  4022cc:	c3                   	retq   

00000000004022cd <urlencode>:
  4022cd:	41 54                	push   %r12
  4022cf:	55                   	push   %rbp
  4022d0:	53                   	push   %rbx
  4022d1:	48 83 ec 10          	sub    $0x10,%rsp
  4022d5:	48 89 fb             	mov    %rdi,%rbx
  4022d8:	48 89 f5             	mov    %rsi,%rbp
  4022db:	64 48 8b 04 25 28 00 	mov    %fs:0x28,%rax
  4022e2:	00 00 
  4022e4:	48 89 44 24 08       	mov    %rax,0x8(%rsp)
  4022e9:	31 c0                	xor    %eax,%eax
  4022eb:	48 c7 c1 ff ff ff ff 	mov    $0xffffffffffffffff,%rcx
  4022f2:	f2 ae                	repnz scas %es:(%rdi),%al
  4022f4:	48 f7 d1             	not    %rcx
  4022f7:	8d 41 ff             	lea    -0x1(%rcx),%eax
  4022fa:	e9 aa 00 00 00       	jmpq   4023a9 <urlencode+0xdc>
  4022ff:	44 0f b6 03          	movzbl (%rbx),%r8d
  402303:	41 80 f8 2a          	cmp    $0x2a,%r8b
  402307:	0f 94 c2             	sete   %dl
  40230a:	41 80 f8 2d          	cmp    $0x2d,%r8b
  40230e:	0f 94 c0             	sete   %al
  402311:	08 c2                	or     %al,%dl
  402313:	75 24                	jne    402339 <urlencode+0x6c>
  402315:	41 80 f8 2e          	cmp    $0x2e,%r8b
  402319:	74 1e                	je     402339 <urlencode+0x6c>
  40231b:	41 80 f8 5f          	cmp    $0x5f,%r8b
  40231f:	74 18                	je     402339 <urlencode+0x6c>
  402321:	41 8d 40 d0          	lea    -0x30(%r8),%eax
  402325:	3c 09                	cmp    $0x9,%al
  402327:	76 10                	jbe    402339 <urlencode+0x6c>
  402329:	41 8d 40 bf          	lea    -0x41(%r8),%eax
  40232d:	3c 19                	cmp    $0x19,%al
  40232f:	76 08                	jbe    402339 <urlencode+0x6c>
  402331:	41 8d 40 9f          	lea    -0x61(%r8),%eax
  402335:	3c 19                	cmp    $0x19,%al
  402337:	77 0a                	ja     402343 <urlencode+0x76>
  402339:	44 88 45 00          	mov    %r8b,0x0(%rbp)
  40233d:	48 8d 6d 01          	lea    0x1(%rbp),%rbp
  402341:	eb 5f                	jmp    4023a2 <urlencode+0xd5>
  402343:	41 80 f8 20          	cmp    $0x20,%r8b
  402347:	75 0a                	jne    402353 <urlencode+0x86>
  402349:	c6 45 00 2b          	movb   $0x2b,0x0(%rbp)
  40234d:	48 8d 6d 01          	lea    0x1(%rbp),%rbp
  402351:	eb 4f                	jmp    4023a2 <urlencode+0xd5>
  402353:	41 8d 40 e0          	lea    -0x20(%r8),%eax
  402357:	3c 5f                	cmp    $0x5f,%al
  402359:	0f 96 c2             	setbe  %dl
  40235c:	41 80 f8 09          	cmp    $0x9,%r8b
  402360:	0f 94 c0             	sete   %al
  402363:	08 c2                	or     %al,%dl
  402365:	74 50                	je     4023b7 <urlencode+0xea>
  402367:	45 0f b6 c0          	movzbl %r8b,%r8d
  40236b:	b9 a8 37 40 00       	mov    $0x4037a8,%ecx
  402370:	ba 08 00 00 00       	mov    $0x8,%edx
  402375:	be 01 00 00 00       	mov    $0x1,%esi
  40237a:	48 89 e7             	mov    %rsp,%rdi
  40237d:	b8 00 00 00 00       	mov    $0x0,%eax
  402382:	e8 f9 ea ff ff       	callq  400e80 <__sprintf_chk@plt>
  402387:	0f b6 04 24          	movzbl (%rsp),%eax
  40238b:	88 45 00             	mov    %al,0x0(%rbp)
  40238e:	0f b6 44 24 01       	movzbl 0x1(%rsp),%eax
  402393:	88 45 01             	mov    %al,0x1(%rbp)
  402396:	0f b6 44 24 02       	movzbl 0x2(%rsp),%eax
  40239b:	88 45 02             	mov    %al,0x2(%rbp)
  40239e:	48 8d 6d 03          	lea    0x3(%rbp),%rbp
  4023a2:	48 83 c3 01          	add    $0x1,%rbx
  4023a6:	44 89 e0             	mov    %r12d,%eax
  4023a9:	44 8d 60 ff          	lea    -0x1(%rax),%r12d
  4023ad:	85 c0                	test   %eax,%eax
  4023af:	0f 85 4a ff ff ff    	jne    4022ff <urlencode+0x32>
  4023b5:	eb 05                	jmp    4023bc <urlencode+0xef>
  4023b7:	b8 ff ff ff ff       	mov    $0xffffffff,%eax
  4023bc:	48 8b 74 24 08       	mov    0x8(%rsp),%rsi
  4023c1:	64 48 33 34 25 28 00 	xor    %fs:0x28,%rsi
  4023c8:	00 00 
  4023ca:	74 05                	je     4023d1 <urlencode+0x104>
  4023cc:	e8 1f e9 ff ff       	callq  400cf0 <__stack_chk_fail@plt>
  4023d1:	48 83 c4 10          	add    $0x10,%rsp
  4023d5:	5b                   	pop    %rbx
  4023d6:	5d                   	pop    %rbp
  4023d7:	41 5c                	pop    %r12
  4023d9:	c3                   	retq   

00000000004023da <submitr>:
  4023da:	41 57                	push   %r15
  4023dc:	41 56                	push   %r14
  4023de:	41 55                	push   %r13
  4023e0:	41 54                	push   %r12
  4023e2:	55                   	push   %rbp
  4023e3:	53                   	push   %rbx
  4023e4:	48 81 ec 58 a0 00 00 	sub    $0xa058,%rsp
  4023eb:	49 89 fc             	mov    %rdi,%r12
  4023ee:	89 74 24 04          	mov    %esi,0x4(%rsp)
  4023f2:	49 89 d7             	mov    %rdx,%r15
  4023f5:	49 89 ce             	mov    %rcx,%r14
  4023f8:	4c 89 44 24 08       	mov    %r8,0x8(%rsp)
  4023fd:	4d 89 cd             	mov    %r9,%r13
  402400:	48 8b 9c 24 90 a0 00 	mov    0xa090(%rsp),%rbx
  402407:	00 
  402408:	64 48 8b 04 25 28 00 	mov    %fs:0x28,%rax
  40240f:	00 00 
  402411:	48 89 84 24 48 a0 00 	mov    %rax,0xa048(%rsp)
  402418:	00 
  402419:	31 c0                	xor    %eax,%eax
  40241b:	c7 44 24 1c 00 00 00 	movl   $0x0,0x1c(%rsp)
  402422:	00 
  402423:	ba 00 00 00 00       	mov    $0x0,%edx
  402428:	be 01 00 00 00       	mov    $0x1,%esi
  40242d:	bf 02 00 00 00       	mov    $0x2,%edi
  402432:	e8 59 ea ff ff       	callq  400e90 <socket@plt>
  402437:	85 c0                	test   %eax,%eax
  402439:	79 4e                	jns    402489 <submitr+0xaf>
  40243b:	48 b8 45 72 72 6f 72 	movabs $0x43203a726f727245,%rax
  402442:	3a 20 43 
  402445:	48 89 03             	mov    %rax,(%rbx)
  402448:	48 b8 6c 69 65 6e 74 	movabs $0x6e7520746e65696c,%rax
  40244f:	20 75 6e 
  402452:	48 89 43 08          	mov    %rax,0x8(%rbx)
  402456:	48 b8 61 62 6c 65 20 	movabs $0x206f7420656c6261,%rax
  40245d:	74 6f 20 
  402460:	48 89 43 10          	mov    %rax,0x10(%rbx)
  402464:	48 b8 63 72 65 61 74 	movabs $0x7320657461657263,%rax
  40246b:	65 20 73 
  40246e:	48 89 43 18          	mov    %rax,0x18(%rbx)
  402472:	c7 43 20 6f 63 6b 65 	movl   $0x656b636f,0x20(%rbx)
  402479:	66 c7 43 24 74 00    	movw   $0x74,0x24(%rbx)
  40247f:	b8 ff ff ff ff       	mov    $0xffffffff,%eax
  402484:	e9 97 06 00 00       	jmpq   402b20 <submitr+0x746>
  402489:	89 c5                	mov    %eax,%ebp
  40248b:	4c 89 e7             	mov    %r12,%rdi
  40248e:	e8 dd e8 ff ff       	callq  400d70 <gethostbyname@plt>
  402493:	48 85 c0             	test   %rax,%rax
  402496:	75 67                	jne    4024ff <submitr+0x125>
  402498:	48 b8 45 72 72 6f 72 	movabs $0x44203a726f727245,%rax
  40249f:	3a 20 44 
  4024a2:	48 89 03             	mov    %rax,(%rbx)
  4024a5:	48 b8 4e 53 20 69 73 	movabs $0x6e7520736920534e,%rax
  4024ac:	20 75 6e 
  4024af:	48 89 43 08          	mov    %rax,0x8(%rbx)
  4024b3:	48 b8 61 62 6c 65 20 	movabs $0x206f7420656c6261,%rax
  4024ba:	74 6f 20 
  4024bd:	48 89 43 10          	mov    %rax,0x10(%rbx)
  4024c1:	48 b8 72 65 73 6f 6c 	movabs $0x2065766c6f736572,%rax
  4024c8:	76 65 20 
  4024cb:	48 89 43 18          	mov    %rax,0x18(%rbx)
  4024cf:	48 b8 73 65 72 76 65 	movabs $0x6120726576726573,%rax
  4024d6:	72 20 61 
  4024d9:	48 89 43 20          	mov    %rax,0x20(%rbx)
  4024dd:	c7 43 28 64 64 72 65 	movl   $0x65726464,0x28(%rbx)
  4024e4:	66 c7 43 2c 73 73    	movw   $0x7373,0x2c(%rbx)
  4024ea:	c6 43 2e 00          	movb   $0x0,0x2e(%rbx)
  4024ee:	89 ef                	mov    %ebp,%edi
  4024f0:	e8 3b e8 ff ff       	callq  400d30 <close@plt>
  4024f5:	b8 ff ff ff ff       	mov    $0xffffffff,%eax
  4024fa:	e9 21 06 00 00       	jmpq   402b20 <submitr+0x746>
  4024ff:	48 c7 44 24 20 00 00 	movq   $0x0,0x20(%rsp)
  402506:	00 00 
  402508:	48 c7 44 24 28 00 00 	movq   $0x0,0x28(%rsp)
  40250f:	00 00 
  402511:	66 c7 44 24 20 02 00 	movw   $0x2,0x20(%rsp)
  402518:	48 63 50 14          	movslq 0x14(%rax),%rdx
  40251c:	48 8b 40 18          	mov    0x18(%rax),%rax
  402520:	48 8b 30             	mov    (%rax),%rsi
  402523:	48 8d 7c 24 24       	lea    0x24(%rsp),%rdi
  402528:	b9 0c 00 00 00       	mov    $0xc,%ecx
  40252d:	e8 4e e8 ff ff       	callq  400d80 <__memmove_chk@plt>
  402532:	0f b7 44 24 04       	movzwl 0x4(%rsp),%eax
  402537:	66 c1 c8 08          	ror    $0x8,%ax
  40253b:	66 89 44 24 22       	mov    %ax,0x22(%rsp)
  402540:	ba 10 00 00 00       	mov    $0x10,%edx
  402545:	48 8d 74 24 20       	lea    0x20(%rsp),%rsi
  40254a:	89 ef                	mov    %ebp,%edi
  40254c:	e8 0f e9 ff ff       	callq  400e60 <connect@plt>
  402551:	85 c0                	test   %eax,%eax
  402553:	79 59                	jns    4025ae <submitr+0x1d4>
  402555:	48 b8 45 72 72 6f 72 	movabs $0x55203a726f727245,%rax
  40255c:	3a 20 55 
  40255f:	48 89 03             	mov    %rax,(%rbx)
  402562:	48 b8 6e 61 62 6c 65 	movabs $0x6f7420656c62616e,%rax
  402569:	20 74 6f 
  40256c:	48 89 43 08          	mov    %rax,0x8(%rbx)
  402570:	48 b8 20 63 6f 6e 6e 	movabs $0x7463656e6e6f6320,%rax
  402577:	65 63 74 
  40257a:	48 89 43 10          	mov    %rax,0x10(%rbx)
  40257e:	48 b8 20 74 6f 20 74 	movabs $0x20656874206f7420,%rax
  402585:	68 65 20 
  402588:	48 89 43 18          	mov    %rax,0x18(%rbx)
  40258c:	c7 43 20 73 65 72 76 	movl   $0x76726573,0x20(%rbx)
  402593:	66 c7 43 24 65 72    	movw   $0x7265,0x24(%rbx)
  402599:	c6 43 26 00          	movb   $0x0,0x26(%rbx)
  40259d:	89 ef                	mov    %ebp,%edi
  40259f:	e8 8c e7 ff ff       	callq  400d30 <close@plt>
  4025a4:	b8 ff ff ff ff       	mov    $0xffffffff,%eax
  4025a9:	e9 72 05 00 00       	jmpq   402b20 <submitr+0x746>
  4025ae:	48 c7 c6 ff ff ff ff 	mov    $0xffffffffffffffff,%rsi
  4025b5:	b8 00 00 00 00       	mov    $0x0,%eax
  4025ba:	48 89 f1             	mov    %rsi,%rcx
  4025bd:	4c 89 ef             	mov    %r13,%rdi
  4025c0:	f2 ae                	repnz scas %es:(%rdi),%al
  4025c2:	48 f7 d1             	not    %rcx
  4025c5:	48 89 ca             	mov    %rcx,%rdx
  4025c8:	48 89 f1             	mov    %rsi,%rcx
  4025cb:	4c 89 ff             	mov    %r15,%rdi
  4025ce:	f2 ae                	repnz scas %es:(%rdi),%al
  4025d0:	48 f7 d1             	not    %rcx
  4025d3:	49 89 c8             	mov    %rcx,%r8
  4025d6:	48 89 f1             	mov    %rsi,%rcx
  4025d9:	4c 89 f7             	mov    %r14,%rdi
  4025dc:	f2 ae                	repnz scas %es:(%rdi),%al
  4025de:	48 f7 d1             	not    %rcx
  4025e1:	4d 8d 44 08 fe       	lea    -0x2(%r8,%rcx,1),%r8
  4025e6:	48 89 f1             	mov    %rsi,%rcx
  4025e9:	48 8b 7c 24 08       	mov    0x8(%rsp),%rdi
  4025ee:	f2 ae                	repnz scas %es:(%rdi),%al
  4025f0:	48 89 c8             	mov    %rcx,%rax
  4025f3:	48 f7 d0             	not    %rax
  4025f6:	49 8d 4c 00 ff       	lea    -0x1(%r8,%rax,1),%rcx
  4025fb:	48 8d 44 52 fd       	lea    -0x3(%rdx,%rdx,2),%rax
  402600:	48 8d 84 01 80 00 00 	lea    0x80(%rcx,%rax,1),%rax
  402607:	00 
  402608:	48 3d 00 20 00 00    	cmp    $0x2000,%rax
  40260e:	76 72                	jbe    402682 <submitr+0x2a8>
  402610:	48 b8 45 72 72 6f 72 	movabs $0x52203a726f727245,%rax
  402617:	3a 20 52 
  40261a:	48 89 03             	mov    %rax,(%rbx)
  40261d:	48 b8 65 73 75 6c 74 	movabs $0x747320746c757365,%rax
  402624:	20 73 74 
  402627:	48 89 43 08          	mov    %rax,0x8(%rbx)
  40262b:	48 b8 72 69 6e 67 20 	movabs $0x6f6f7420676e6972,%rax
  402632:	74 6f 6f 
  402635:	48 89 43 10          	mov    %rax,0x10(%rbx)
  402639:	48 b8 20 6c 61 72 67 	movabs $0x202e656772616c20,%rax
  402640:	65 2e 20 
  402643:	48 89 43 18          	mov    %rax,0x18(%rbx)
  402647:	48 b8 49 6e 63 72 65 	movabs $0x6573616572636e49,%rax
  40264e:	61 73 65 
  402651:	48 89 43 20          	mov    %rax,0x20(%rbx)
  402655:	48 b8 20 53 55 42 4d 	movabs $0x5254494d42555320,%rax
  40265c:	49 54 52 
  40265f:	48 89 43 28          	mov    %rax,0x28(%rbx)
  402663:	48 b8 5f 4d 41 58 42 	movabs $0x46554258414d5f,%rax
  40266a:	55 46 00 
  40266d:	48 89 43 30          	mov    %rax,0x30(%rbx)
  402671:	89 ef                	mov    %ebp,%edi
  402673:	e8 b8 e6 ff ff       	callq  400d30 <close@plt>
  402678:	b8 ff ff ff ff       	mov    $0xffffffff,%eax
  40267d:	e9 9e 04 00 00       	jmpq   402b20 <submitr+0x746>
  402682:	48 8d b4 24 40 40 00 	lea    0x4040(%rsp),%rsi
  402689:	00 
  40268a:	b9 00 04 00 00       	mov    $0x400,%ecx
  40268f:	b8 00 00 00 00       	mov    $0x0,%eax
  402694:	48 89 f7             	mov    %rsi,%rdi
  402697:	f3 48 ab             	rep stos %rax,%es:(%rdi)
  40269a:	4c 89 ef             	mov    %r13,%rdi
  40269d:	e8 2b fc ff ff       	callq  4022cd <urlencode>
  4026a2:	85 c0                	test   %eax,%eax
  4026a4:	0f 89 8a 00 00 00    	jns    402734 <submitr+0x35a>
  4026aa:	48 b8 45 72 72 6f 72 	movabs $0x52203a726f727245,%rax
  4026b1:	3a 20 52 
  4026b4:	48 89 03             	mov    %rax,(%rbx)
  4026b7:	48 b8 65 73 75 6c 74 	movabs $0x747320746c757365,%rax
  4026be:	20 73 74 
  4026c1:	48 89 43 08          	mov    %rax,0x8(%rbx)
  4026c5:	48 b8 72 69 6e 67 20 	movabs $0x6e6f6320676e6972,%rax
  4026cc:	63 6f 6e 
  4026cf:	48 89 43 10          	mov    %rax,0x10(%rbx)
  4026d3:	48 b8 74 61 69 6e 73 	movabs $0x6e6120736e696174,%rax
  4026da:	20 61 6e 
  4026dd:	48 89 43 18          	mov    %rax,0x18(%rbx)
  4026e1:	48 b8 20 69 6c 6c 65 	movabs $0x6c6167656c6c6920,%rax
  4026e8:	67 61 6c 
  4026eb:	48 89 43 20          	mov    %rax,0x20(%rbx)
  4026ef:	48 b8 20 6f 72 20 75 	movabs $0x72706e7520726f20,%rax
  4026f6:	6e 70 72 
  4026f9:	48 89 43 28          	mov    %rax,0x28(%rbx)
  4026fd:	48 b8 69 6e 74 61 62 	movabs $0x20656c6261746e69,%rax
  402704:	6c 65 20 
  402707:	48 89 43 30          	mov    %rax,0x30(%rbx)
  40270b:	48 b8 63 68 61 72 61 	movabs $0x6574636172616863,%rax
  402712:	63 74 65 
  402715:	48 89 43 38          	mov    %rax,0x38(%rbx)
  402719:	66 c7 43 40 72 2e    	movw   $0x2e72,0x40(%rbx)
  40271f:	c6 43 42 00          	movb   $0x0,0x42(%rbx)
  402723:	89 ef                	mov    %ebp,%edi
  402725:	e8 06 e6 ff ff       	callq  400d30 <close@plt>
  40272a:	b8 ff ff ff ff       	mov    $0xffffffff,%eax
  40272f:	e9 ec 03 00 00       	jmpq   402b20 <submitr+0x746>
  402734:	4c 8d ac 24 40 20 00 	lea    0x2040(%rsp),%r13
  40273b:	00 
  40273c:	41 54                	push   %r12
  40273e:	48 8d 84 24 48 40 00 	lea    0x4048(%rsp),%rax
  402745:	00 
  402746:	50                   	push   %rax
  402747:	4d 89 f9             	mov    %r15,%r9
  40274a:	4d 89 f0             	mov    %r14,%r8
  40274d:	b9 38 37 40 00       	mov    $0x403738,%ecx
  402752:	ba 00 20 00 00       	mov    $0x2000,%edx
  402757:	be 01 00 00 00       	mov    $0x1,%esi
  40275c:	4c 89 ef             	mov    %r13,%rdi
  40275f:	b8 00 00 00 00       	mov    $0x0,%eax
  402764:	e8 17 e7 ff ff       	callq  400e80 <__sprintf_chk@plt>
  402769:	b8 00 00 00 00       	mov    $0x0,%eax
  40276e:	48 c7 c1 ff ff ff ff 	mov    $0xffffffffffffffff,%rcx
  402775:	4c 89 ef             	mov    %r13,%rdi
  402778:	f2 ae                	repnz scas %es:(%rdi),%al
  40277a:	48 f7 d1             	not    %rcx
  40277d:	48 8d 51 ff          	lea    -0x1(%rcx),%rdx
  402781:	4c 89 ee             	mov    %r13,%rsi
  402784:	89 ef                	mov    %ebp,%edi
  402786:	e8 b1 f9 ff ff       	callq  40213c <rio_writen>
  40278b:	48 83 c4 10          	add    $0x10,%rsp
  40278f:	48 85 c0             	test   %rax,%rax
  402792:	79 6e                	jns    402802 <submitr+0x428>
  402794:	48 b8 45 72 72 6f 72 	movabs $0x43203a726f727245,%rax
  40279b:	3a 20 43 
  40279e:	48 89 03             	mov    %rax,(%rbx)
  4027a1:	48 b8 6c 69 65 6e 74 	movabs $0x6e7520746e65696c,%rax
  4027a8:	20 75 6e 
  4027ab:	48 89 43 08          	mov    %rax,0x8(%rbx)
  4027af:	48 b8 61 62 6c 65 20 	movabs $0x206f7420656c6261,%rax
  4027b6:	74 6f 20 
  4027b9:	48 89 43 10          	mov    %rax,0x10(%rbx)
  4027bd:	48 b8 77 72 69 74 65 	movabs $0x6f74206574697277,%rax
  4027c4:	20 74 6f 
  4027c7:	48 89 43 18          	mov    %rax,0x18(%rbx)
  4027cb:	48 b8 20 74 68 65 20 	movabs $0x7365722065687420,%rax
  4027d2:	72 65 73 
  4027d5:	48 89 43 20          	mov    %rax,0x20(%rbx)
  4027d9:	48 b8 75 6c 74 20 73 	movabs $0x7672657320746c75,%rax
  4027e0:	65 72 76 
  4027e3:	48 89 43 28          	mov    %rax,0x28(%rbx)
  4027e7:	66 c7 43 30 65 72    	movw   $0x7265,0x30(%rbx)
  4027ed:	c6 43 32 00          	movb   $0x0,0x32(%rbx)
  4027f1:	89 ef                	mov    %ebp,%edi
  4027f3:	e8 38 e5 ff ff       	callq  400d30 <close@plt>
  4027f8:	b8 ff ff ff ff       	mov    $0xffffffff,%eax
  4027fd:	e9 1e 03 00 00       	jmpq   402b20 <submitr+0x746>
  402802:	89 ee                	mov    %ebp,%esi
  402804:	48 8d 7c 24 30       	lea    0x30(%rsp),%rdi
  402809:	e8 ee f8 ff ff       	callq  4020fc <rio_readinitb>
  40280e:	ba 00 20 00 00       	mov    $0x2000,%edx
  402813:	48 8d b4 24 40 20 00 	lea    0x2040(%rsp),%rsi
  40281a:	00 
  40281b:	48 8d 7c 24 30       	lea    0x30(%rsp),%rdi
  402820:	e8 fe f9 ff ff       	callq  402223 <rio_readlineb>
  402825:	48 85 c0             	test   %rax,%rax
  402828:	7f 7d                	jg     4028a7 <submitr+0x4cd>
  40282a:	48 b8 45 72 72 6f 72 	movabs $0x43203a726f727245,%rax
  402831:	3a 20 43 
  402834:	48 89 03             	mov    %rax,(%rbx)
  402837:	48 b8 6c 69 65 6e 74 	movabs $0x6e7520746e65696c,%rax
  40283e:	20 75 6e 
  402841:	48 89 43 08          	mov    %rax,0x8(%rbx)
  402845:	48 b8 61 62 6c 65 20 	movabs $0x206f7420656c6261,%rax
  40284c:	74 6f 20 
  40284f:	48 89 43 10          	mov    %rax,0x10(%rbx)
  402853:	48 b8 72 65 61 64 20 	movabs $0x7269662064616572,%rax
  40285a:	66 69 72 
  40285d:	48 89 43 18          	mov    %rax,0x18(%rbx)
  402861:	48 b8 73 74 20 68 65 	movabs $0x6564616568207473,%rax
  402868:	61 64 65 
  40286b:	48 89 43 20          	mov    %rax,0x20(%rbx)
  40286f:	48 b8 72 20 66 72 6f 	movabs $0x72206d6f72662072,%rax
  402876:	6d 20 72 
  402879:	48 89 43 28          	mov    %rax,0x28(%rbx)
  40287d:	48 b8 65 73 75 6c 74 	movabs $0x657320746c757365,%rax
  402884:	20 73 65 
  402887:	48 89 43 30          	mov    %rax,0x30(%rbx)
  40288b:	c7 43 38 72 76 65 72 	movl   $0x72657672,0x38(%rbx)
  402892:	c6 43 3c 00          	movb   $0x0,0x3c(%rbx)
  402896:	89 ef                	mov    %ebp,%edi
  402898:	e8 93 e4 ff ff       	callq  400d30 <close@plt>
  40289d:	b8 ff ff ff ff       	mov    $0xffffffff,%eax
  4028a2:	e9 79 02 00 00       	jmpq   402b20 <submitr+0x746>
  4028a7:	4c 8d 84 24 40 80 00 	lea    0x8040(%rsp),%r8
  4028ae:	00 
  4028af:	48 8d 4c 24 1c       	lea    0x1c(%rsp),%rcx
  4028b4:	48 8d 94 24 40 60 00 	lea    0x6040(%rsp),%rdx
  4028bb:	00 
  4028bc:	be af 37 40 00       	mov    $0x4037af,%esi
  4028c1:	48 8d bc 24 40 20 00 	lea    0x2040(%rsp),%rdi
  4028c8:	00 
  4028c9:	b8 00 00 00 00       	mov    $0x0,%eax
  4028ce:	e8 0d e5 ff ff       	callq  400de0 <__isoc99_sscanf@plt>
  4028d3:	e9 95 00 00 00       	jmpq   40296d <submitr+0x593>
  4028d8:	ba 00 20 00 00       	mov    $0x2000,%edx
  4028dd:	48 8d b4 24 40 20 00 	lea    0x2040(%rsp),%rsi
  4028e4:	00 
  4028e5:	48 8d 7c 24 30       	lea    0x30(%rsp),%rdi
  4028ea:	e8 34 f9 ff ff       	callq  402223 <rio_readlineb>
  4028ef:	48 85 c0             	test   %rax,%rax
  4028f2:	7f 79                	jg     40296d <submitr+0x593>
  4028f4:	48 b8 45 72 72 6f 72 	movabs $0x43203a726f727245,%rax
  4028fb:	3a 20 43 
  4028fe:	48 89 03             	mov    %rax,(%rbx)
  402901:	48 b8 6c 69 65 6e 74 	movabs $0x6e7520746e65696c,%rax
  402908:	20 75 6e 
  40290b:	48 89 43 08          	mov    %rax,0x8(%rbx)
  40290f:	48 b8 61 62 6c 65 20 	movabs $0x206f7420656c6261,%rax
  402916:	74 6f 20 
  402919:	48 89 43 10          	mov    %rax,0x10(%rbx)
  40291d:	48 b8 72 65 61 64 20 	movabs $0x6165682064616572,%rax
  402924:	68 65 61 
  402927:	48 89 43 18          	mov    %rax,0x18(%rbx)
  40292b:	48 b8 64 65 72 73 20 	movabs $0x6f72662073726564,%rax
  402932:	66 72 6f 
  402935:	48 89 43 20          	mov    %rax,0x20(%rbx)
  402939:	48 b8 6d 20 74 68 65 	movabs $0x657220656874206d,%rax
  402940:	20 72 65 
  402943:	48 89 43 28          	mov    %rax,0x28(%rbx)
  402947:	48 b8 73 75 6c 74 20 	movabs $0x72657320746c7573,%rax
  40294e:	73 65 72 
  402951:	48 89 43 30          	mov    %rax,0x30(%rbx)
  402955:	c7 43 38 76 65 72 00 	movl   $0x726576,0x38(%rbx)
  40295c:	89 ef                	mov    %ebp,%edi
  40295e:	e8 cd e3 ff ff       	callq  400d30 <close@plt>
  402963:	b8 ff ff ff ff       	mov    $0xffffffff,%eax
  402968:	e9 b3 01 00 00       	jmpq   402b20 <submitr+0x746>
  40296d:	0f b6 94 24 40 20 00 	movzbl 0x2040(%rsp),%edx
  402974:	00 
  402975:	b8 0d 00 00 00       	mov    $0xd,%eax
  40297a:	29 d0                	sub    %edx,%eax
  40297c:	75 1b                	jne    402999 <submitr+0x5bf>
  40297e:	0f b6 94 24 41 20 00 	movzbl 0x2041(%rsp),%edx
  402985:	00 
  402986:	b8 0a 00 00 00       	mov    $0xa,%eax
  40298b:	29 d0                	sub    %edx,%eax
  40298d:	75 0a                	jne    402999 <submitr+0x5bf>
  40298f:	0f b6 84 24 42 20 00 	movzbl 0x2042(%rsp),%eax
  402996:	00 
  402997:	f7 d8                	neg    %eax
  402999:	85 c0                	test   %eax,%eax
  40299b:	0f 85 37 ff ff ff    	jne    4028d8 <submitr+0x4fe>
  4029a1:	ba 00 20 00 00       	mov    $0x2000,%edx
  4029a6:	48 8d b4 24 40 20 00 	lea    0x2040(%rsp),%rsi
  4029ad:	00 
  4029ae:	48 8d 7c 24 30       	lea    0x30(%rsp),%rdi
  4029b3:	e8 6b f8 ff ff       	callq  402223 <rio_readlineb>
  4029b8:	48 85 c0             	test   %rax,%rax
  4029bb:	0f 8f 83 00 00 00    	jg     402a44 <submitr+0x66a>
  4029c1:	48 b8 45 72 72 6f 72 	movabs $0x43203a726f727245,%rax
  4029c8:	3a 20 43 
  4029cb:	48 89 03             	mov    %rax,(%rbx)
  4029ce:	48 b8 6c 69 65 6e 74 	movabs $0x6e7520746e65696c,%rax
  4029d5:	20 75 6e 
  4029d8:	48 89 43 08          	mov    %rax,0x8(%rbx)
  4029dc:	48 b8 61 62 6c 65 20 	movabs $0x206f7420656c6261,%rax
  4029e3:	74 6f 20 
  4029e6:	48 89 43 10          	mov    %rax,0x10(%rbx)
  4029ea:	48 b8 72 65 61 64 20 	movabs $0x6174732064616572,%rax
  4029f1:	73 74 61 
  4029f4:	48 89 43 18          	mov    %rax,0x18(%rbx)
  4029f8:	48 b8 74 75 73 20 6d 	movabs $0x7373656d20737574,%rax
  4029ff:	65 73 73 
  402a02:	48 89 43 20          	mov    %rax,0x20(%rbx)
  402a06:	48 b8 61 67 65 20 66 	movabs $0x6d6f726620656761,%rax
  402a0d:	72 6f 6d 
  402a10:	48 89 43 28          	mov    %rax,0x28(%rbx)
  402a14:	48 b8 20 72 65 73 75 	movabs $0x20746c7573657220,%rax
  402a1b:	6c 74 20 
  402a1e:	48 89 43 30          	mov    %rax,0x30(%rbx)
  402a22:	c7 43 38 73 65 72 76 	movl   $0x76726573,0x38(%rbx)
  402a29:	66 c7 43 3c 65 72    	movw   $0x7265,0x3c(%rbx)
  402a2f:	c6 43 3e 00          	movb   $0x0,0x3e(%rbx)
  402a33:	89 ef                	mov    %ebp,%edi
  402a35:	e8 f6 e2 ff ff       	callq  400d30 <close@plt>
  402a3a:	b8 ff ff ff ff       	mov    $0xffffffff,%eax
  402a3f:	e9 dc 00 00 00       	jmpq   402b20 <submitr+0x746>
  402a44:	44 8b 44 24 1c       	mov    0x1c(%rsp),%r8d
  402a49:	41 81 f8 c8 00 00 00 	cmp    $0xc8,%r8d
  402a50:	74 37                	je     402a89 <submitr+0x6af>
  402a52:	4c 8d 8c 24 40 80 00 	lea    0x8040(%rsp),%r9
  402a59:	00 
  402a5a:	b9 78 37 40 00       	mov    $0x403778,%ecx
  402a5f:	48 c7 c2 ff ff ff ff 	mov    $0xffffffffffffffff,%rdx
  402a66:	be 01 00 00 00       	mov    $0x1,%esi
  402a6b:	48 89 df             	mov    %rbx,%rdi
  402a6e:	b8 00 00 00 00       	mov    $0x0,%eax
  402a73:	e8 08 e4 ff ff       	callq  400e80 <__sprintf_chk@plt>
  402a78:	89 ef                	mov    %ebp,%edi
  402a7a:	e8 b1 e2 ff ff       	callq  400d30 <close@plt>
  402a7f:	b8 ff ff ff ff       	mov    $0xffffffff,%eax
  402a84:	e9 97 00 00 00       	jmpq   402b20 <submitr+0x746>
  402a89:	48 8d b4 24 40 20 00 	lea    0x2040(%rsp),%rsi
  402a90:	00 
  402a91:	48 89 df             	mov    %rbx,%rdi
  402a94:	e8 27 e2 ff ff       	callq  400cc0 <strcpy@plt>
  402a99:	89 ef                	mov    %ebp,%edi
  402a9b:	e8 90 e2 ff ff       	callq  400d30 <close@plt>
  402aa0:	0f b6 03             	movzbl (%rbx),%eax
  402aa3:	ba 4f 00 00 00       	mov    $0x4f,%edx
  402aa8:	29 c2                	sub    %eax,%edx
  402aaa:	75 22                	jne    402ace <submitr+0x6f4>
  402aac:	0f b6 4b 01          	movzbl 0x1(%rbx),%ecx
  402ab0:	b8 4b 00 00 00       	mov    $0x4b,%eax
  402ab5:	29 c8                	sub    %ecx,%eax
  402ab7:	75 17                	jne    402ad0 <submitr+0x6f6>
  402ab9:	0f b6 4b 02          	movzbl 0x2(%rbx),%ecx
  402abd:	b8 0a 00 00 00       	mov    $0xa,%eax
  402ac2:	29 c8                	sub    %ecx,%eax
  402ac4:	75 0a                	jne    402ad0 <submitr+0x6f6>
  402ac6:	0f b6 43 03          	movzbl 0x3(%rbx),%eax
  402aca:	f7 d8                	neg    %eax
  402acc:	eb 02                	jmp    402ad0 <submitr+0x6f6>
  402ace:	89 d0                	mov    %edx,%eax
  402ad0:	85 c0                	test   %eax,%eax
  402ad2:	74 40                	je     402b14 <submitr+0x73a>
  402ad4:	bf c0 37 40 00       	mov    $0x4037c0,%edi
  402ad9:	b9 05 00 00 00       	mov    $0x5,%ecx
  402ade:	48 89 de             	mov    %rbx,%rsi
  402ae1:	f3 a6                	repz cmpsb %es:(%rdi),%ds:(%rsi)
  402ae3:	0f 97 c0             	seta   %al
  402ae6:	0f 92 c1             	setb   %cl
  402ae9:	29 c8                	sub    %ecx,%eax
  402aeb:	0f be c0             	movsbl %al,%eax
  402aee:	85 c0                	test   %eax,%eax
  402af0:	74 2e                	je     402b20 <submitr+0x746>
  402af2:	85 d2                	test   %edx,%edx
  402af4:	75 13                	jne    402b09 <submitr+0x72f>
  402af6:	0f b6 43 01          	movzbl 0x1(%rbx),%eax
  402afa:	ba 4b 00 00 00       	mov    $0x4b,%edx
  402aff:	29 c2                	sub    %eax,%edx
  402b01:	75 06                	jne    402b09 <submitr+0x72f>
  402b03:	0f b6 53 02          	movzbl 0x2(%rbx),%edx
  402b07:	f7 da                	neg    %edx
  402b09:	85 d2                	test   %edx,%edx
  402b0b:	75 0e                	jne    402b1b <submitr+0x741>
  402b0d:	b8 00 00 00 00       	mov    $0x0,%eax
  402b12:	eb 0c                	jmp    402b20 <submitr+0x746>
  402b14:	b8 00 00 00 00       	mov    $0x0,%eax
  402b19:	eb 05                	jmp    402b20 <submitr+0x746>
  402b1b:	b8 ff ff ff ff       	mov    $0xffffffff,%eax
  402b20:	48 8b 9c 24 48 a0 00 	mov    0xa048(%rsp),%rbx
  402b27:	00 
  402b28:	64 48 33 1c 25 28 00 	xor    %fs:0x28,%rbx
  402b2f:	00 00 
  402b31:	74 05                	je     402b38 <submitr+0x75e>
  402b33:	e8 b8 e1 ff ff       	callq  400cf0 <__stack_chk_fail@plt>
  402b38:	48 81 c4 58 a0 00 00 	add    $0xa058,%rsp
  402b3f:	5b                   	pop    %rbx
  402b40:	5d                   	pop    %rbp
  402b41:	41 5c                	pop    %r12
  402b43:	41 5d                	pop    %r13
  402b45:	41 5e                	pop    %r14
  402b47:	41 5f                	pop    %r15
  402b49:	c3                   	retq   

0000000000402b4a <init_timeout>:
  402b4a:	85 ff                	test   %edi,%edi
  402b4c:	74 23                	je     402b71 <init_timeout+0x27>
  402b4e:	53                   	push   %rbx
  402b4f:	89 fb                	mov    %edi,%ebx
  402b51:	85 ff                	test   %edi,%edi
  402b53:	79 05                	jns    402b5a <init_timeout+0x10>
  402b55:	bb 00 00 00 00       	mov    $0x0,%ebx
  402b5a:	be 0e 21 40 00       	mov    $0x40210e,%esi
  402b5f:	bf 0e 00 00 00       	mov    $0xe,%edi
  402b64:	e8 f7 e1 ff ff       	callq  400d60 <signal@plt>
  402b69:	89 df                	mov    %ebx,%edi
  402b6b:	e8 b0 e1 ff ff       	callq  400d20 <alarm@plt>
  402b70:	5b                   	pop    %rbx
  402b71:	f3 c3                	repz retq 

0000000000402b73 <init_driver>:
  402b73:	55                   	push   %rbp
  402b74:	53                   	push   %rbx
  402b75:	48 83 ec 28          	sub    $0x28,%rsp
  402b79:	48 89 fd             	mov    %rdi,%rbp
  402b7c:	64 48 8b 04 25 28 00 	mov    %fs:0x28,%rax
  402b83:	00 00 
  402b85:	48 89 44 24 18       	mov    %rax,0x18(%rsp)
  402b8a:	31 c0                	xor    %eax,%eax
  402b8c:	be 01 00 00 00       	mov    $0x1,%esi
  402b91:	bf 0d 00 00 00       	mov    $0xd,%edi
  402b96:	e8 c5 e1 ff ff       	callq  400d60 <signal@plt>
  402b9b:	be 01 00 00 00       	mov    $0x1,%esi
  402ba0:	bf 1d 00 00 00       	mov    $0x1d,%edi
  402ba5:	e8 b6 e1 ff ff       	callq  400d60 <signal@plt>
  402baa:	be 01 00 00 00       	mov    $0x1,%esi
  402baf:	bf 1d 00 00 00       	mov    $0x1d,%edi
  402bb4:	e8 a7 e1 ff ff       	callq  400d60 <signal@plt>
  402bb9:	ba 00 00 00 00       	mov    $0x0,%edx
  402bbe:	be 01 00 00 00       	mov    $0x1,%esi
  402bc3:	bf 02 00 00 00       	mov    $0x2,%edi
  402bc8:	e8 c3 e2 ff ff       	callq  400e90 <socket@plt>
  402bcd:	85 c0                	test   %eax,%eax
  402bcf:	79 4f                	jns    402c20 <init_driver+0xad>
  402bd1:	48 b8 45 72 72 6f 72 	movabs $0x43203a726f727245,%rax
  402bd8:	3a 20 43 
  402bdb:	48 89 45 00          	mov    %rax,0x0(%rbp)
  402bdf:	48 b8 6c 69 65 6e 74 	movabs $0x6e7520746e65696c,%rax
  402be6:	20 75 6e 
  402be9:	48 89 45 08          	mov    %rax,0x8(%rbp)
  402bed:	48 b8 61 62 6c 65 20 	movabs $0x206f7420656c6261,%rax
  402bf4:	74 6f 20 
  402bf7:	48 89 45 10          	mov    %rax,0x10(%rbp)
  402bfb:	48 b8 63 72 65 61 74 	movabs $0x7320657461657263,%rax
  402c02:	65 20 73 
  402c05:	48 89 45 18          	mov    %rax,0x18(%rbp)
  402c09:	c7 45 20 6f 63 6b 65 	movl   $0x656b636f,0x20(%rbp)
  402c10:	66 c7 45 24 74 00    	movw   $0x74,0x24(%rbp)
  402c16:	b8 ff ff ff ff       	mov    $0xffffffff,%eax
  402c1b:	e9 2a 01 00 00       	jmpq   402d4a <init_driver+0x1d7>
  402c20:	89 c3                	mov    %eax,%ebx
  402c22:	bf c5 37 40 00       	mov    $0x4037c5,%edi
  402c27:	e8 44 e1 ff ff       	callq  400d70 <gethostbyname@plt>
  402c2c:	48 85 c0             	test   %rax,%rax
  402c2f:	75 68                	jne    402c99 <init_driver+0x126>
  402c31:	48 b8 45 72 72 6f 72 	movabs $0x44203a726f727245,%rax
  402c38:	3a 20 44 
  402c3b:	48 89 45 00          	mov    %rax,0x0(%rbp)
  402c3f:	48 b8 4e 53 20 69 73 	movabs $0x6e7520736920534e,%rax
  402c46:	20 75 6e 
  402c49:	48 89 45 08          	mov    %rax,0x8(%rbp)
  402c4d:	48 b8 61 62 6c 65 20 	movabs $0x206f7420656c6261,%rax
  402c54:	74 6f 20 
  402c57:	48 89 45 10          	mov    %rax,0x10(%rbp)
  402c5b:	48 b8 72 65 73 6f 6c 	movabs $0x2065766c6f736572,%rax
  402c62:	76 65 20 
  402c65:	48 89 45 18          	mov    %rax,0x18(%rbp)
  402c69:	48 b8 73 65 72 76 65 	movabs $0x6120726576726573,%rax
  402c70:	72 20 61 
  402c73:	48 89 45 20          	mov    %rax,0x20(%rbp)
  402c77:	c7 45 28 64 64 72 65 	movl   $0x65726464,0x28(%rbp)
  402c7e:	66 c7 45 2c 73 73    	movw   $0x7373,0x2c(%rbp)
  402c84:	c6 45 2e 00          	movb   $0x0,0x2e(%rbp)
  402c88:	89 df                	mov    %ebx,%edi
  402c8a:	e8 a1 e0 ff ff       	callq  400d30 <close@plt>
  402c8f:	b8 ff ff ff ff       	mov    $0xffffffff,%eax
  402c94:	e9 b1 00 00 00       	jmpq   402d4a <init_driver+0x1d7>
  402c99:	48 c7 04 24 00 00 00 	movq   $0x0,(%rsp)
  402ca0:	00 
  402ca1:	48 c7 44 24 08 00 00 	movq   $0x0,0x8(%rsp)
  402ca8:	00 00 
  402caa:	66 c7 04 24 02 00    	movw   $0x2,(%rsp)
  402cb0:	48 63 50 14          	movslq 0x14(%rax),%rdx
  402cb4:	48 8b 40 18          	mov    0x18(%rax),%rax
  402cb8:	48 8b 30             	mov    (%rax),%rsi
  402cbb:	48 8d 7c 24 04       	lea    0x4(%rsp),%rdi
  402cc0:	b9 0c 00 00 00       	mov    $0xc,%ecx
  402cc5:	e8 b6 e0 ff ff       	callq  400d80 <__memmove_chk@plt>
  402cca:	66 c7 44 24 02 3c 9a 	movw   $0x9a3c,0x2(%rsp)
  402cd1:	ba 10 00 00 00       	mov    $0x10,%edx
  402cd6:	48 89 e6             	mov    %rsp,%rsi
  402cd9:	89 df                	mov    %ebx,%edi
  402cdb:	e8 80 e1 ff ff       	callq  400e60 <connect@plt>
  402ce0:	85 c0                	test   %eax,%eax
  402ce2:	79 50                	jns    402d34 <init_driver+0x1c1>
  402ce4:	48 b8 45 72 72 6f 72 	movabs $0x55203a726f727245,%rax
  402ceb:	3a 20 55 
  402cee:	48 89 45 00          	mov    %rax,0x0(%rbp)
  402cf2:	48 b8 6e 61 62 6c 65 	movabs $0x6f7420656c62616e,%rax
  402cf9:	20 74 6f 
  402cfc:	48 89 45 08          	mov    %rax,0x8(%rbp)
  402d00:	48 b8 20 63 6f 6e 6e 	movabs $0x7463656e6e6f6320,%rax
  402d07:	65 63 74 
  402d0a:	48 89 45 10          	mov    %rax,0x10(%rbp)
  402d0e:	48 b8 20 74 6f 20 73 	movabs $0x76726573206f7420,%rax
  402d15:	65 72 76 
  402d18:	48 89 45 18          	mov    %rax,0x18(%rbp)
  402d1c:	66 c7 45 20 65 72    	movw   $0x7265,0x20(%rbp)
  402d22:	c6 45 22 00          	movb   $0x0,0x22(%rbp)
  402d26:	89 df                	mov    %ebx,%edi
  402d28:	e8 03 e0 ff ff       	callq  400d30 <close@plt>
  402d2d:	b8 ff ff ff ff       	mov    $0xffffffff,%eax
  402d32:	eb 16                	jmp    402d4a <init_driver+0x1d7>
  402d34:	89 df                	mov    %ebx,%edi
  402d36:	e8 f5 df ff ff       	callq  400d30 <close@plt>
  402d3b:	66 c7 45 00 4f 4b    	movw   $0x4b4f,0x0(%rbp)
  402d41:	c6 45 02 00          	movb   $0x0,0x2(%rbp)
  402d45:	b8 00 00 00 00       	mov    $0x0,%eax
  402d4a:	48 8b 4c 24 18       	mov    0x18(%rsp),%rcx
  402d4f:	64 48 33 0c 25 28 00 	xor    %fs:0x28,%rcx
  402d56:	00 00 
  402d58:	74 05                	je     402d5f <init_driver+0x1ec>
  402d5a:	e8 91 df ff ff       	callq  400cf0 <__stack_chk_fail@plt>
  402d5f:	48 83 c4 28          	add    $0x28,%rsp
  402d63:	5b                   	pop    %rbx
  402d64:	5d                   	pop    %rbp
  402d65:	c3                   	retq   

0000000000402d66 <driver_post>:
  402d66:	53                   	push   %rbx
  402d67:	4c 89 cb             	mov    %r9,%rbx
  402d6a:	45 85 c0             	test   %r8d,%r8d
  402d6d:	74 27                	je     402d96 <driver_post+0x30>
  402d6f:	48 89 ca             	mov    %rcx,%rdx
  402d72:	be d3 37 40 00       	mov    $0x4037d3,%esi
  402d77:	bf 01 00 00 00       	mov    $0x1,%edi
  402d7c:	b8 00 00 00 00       	mov    $0x0,%eax
  402d81:	e8 7a e0 ff ff       	callq  400e00 <__printf_chk@plt>
  402d86:	66 c7 03 4f 4b       	movw   $0x4b4f,(%rbx)
  402d8b:	c6 43 02 00          	movb   $0x0,0x2(%rbx)
  402d8f:	b8 00 00 00 00       	mov    $0x0,%eax
  402d94:	eb 3f                	jmp    402dd5 <driver_post+0x6f>
  402d96:	48 85 ff             	test   %rdi,%rdi
  402d99:	74 2c                	je     402dc7 <driver_post+0x61>
  402d9b:	80 3f 00             	cmpb   $0x0,(%rdi)
  402d9e:	74 27                	je     402dc7 <driver_post+0x61>
  402da0:	48 83 ec 08          	sub    $0x8,%rsp
  402da4:	41 51                	push   %r9
  402da6:	49 89 c9             	mov    %rcx,%r9
  402da9:	49 89 d0             	mov    %rdx,%r8
  402dac:	48 89 f9             	mov    %rdi,%rcx
  402daf:	48 89 f2             	mov    %rsi,%rdx
  402db2:	be 9a 3c 00 00       	mov    $0x3c9a,%esi
  402db7:	bf c5 37 40 00       	mov    $0x4037c5,%edi
  402dbc:	e8 19 f6 ff ff       	callq  4023da <submitr>
  402dc1:	48 83 c4 10          	add    $0x10,%rsp
  402dc5:	eb 0e                	jmp    402dd5 <driver_post+0x6f>
  402dc7:	66 c7 03 4f 4b       	movw   $0x4b4f,(%rbx)
  402dcc:	c6 43 02 00          	movb   $0x0,0x2(%rbx)
  402dd0:	b8 00 00 00 00       	mov    $0x0,%eax
  402dd5:	5b                   	pop    %rbx
  402dd6:	c3                   	retq   

0000000000402dd7 <check>:
  402dd7:	89 f8                	mov    %edi,%eax
  402dd9:	c1 e8 1c             	shr    $0x1c,%eax
  402ddc:	85 c0                	test   %eax,%eax
  402dde:	74 1d                	je     402dfd <check+0x26>
  402de0:	b9 00 00 00 00       	mov    $0x0,%ecx
  402de5:	eb 0b                	jmp    402df2 <check+0x1b>
  402de7:	89 f8                	mov    %edi,%eax
  402de9:	d3 e8                	shr    %cl,%eax
  402deb:	3c 0a                	cmp    $0xa,%al
  402ded:	74 14                	je     402e03 <check+0x2c>
  402def:	83 c1 08             	add    $0x8,%ecx
  402df2:	83 f9 1f             	cmp    $0x1f,%ecx
  402df5:	7e f0                	jle    402de7 <check+0x10>
  402df7:	b8 01 00 00 00       	mov    $0x1,%eax
  402dfc:	c3                   	retq   
  402dfd:	b8 00 00 00 00       	mov    $0x0,%eax
  402e02:	c3                   	retq   
  402e03:	b8 00 00 00 00       	mov    $0x0,%eax
  402e08:	c3                   	retq   

0000000000402e09 <gencookie>:
  402e09:	53                   	push   %rbx
  402e0a:	83 c7 01             	add    $0x1,%edi
  402e0d:	e8 8e de ff ff       	callq  400ca0 <srandom@plt>
  402e12:	e8 a9 df ff ff       	callq  400dc0 <random@plt>
  402e17:	89 c3                	mov    %eax,%ebx
  402e19:	89 c7                	mov    %eax,%edi
  402e1b:	e8 b7 ff ff ff       	callq  402dd7 <check>
  402e20:	85 c0                	test   %eax,%eax
  402e22:	74 ee                	je     402e12 <gencookie+0x9>
  402e24:	89 d8                	mov    %ebx,%eax
  402e26:	5b                   	pop    %rbx
  402e27:	c3                   	retq   
  402e28:	0f 1f 84 00 00 00 00 	nopl   0x0(%rax,%rax,1)
  402e2f:	00 

0000000000402e30 <__libc_csu_init>:
  402e30:	41 57                	push   %r15
  402e32:	41 56                	push   %r14
  402e34:	41 89 ff             	mov    %edi,%r15d
  402e37:	41 55                	push   %r13
  402e39:	41 54                	push   %r12
  402e3b:	4c 8d 25 ce 1f 20 00 	lea    0x201fce(%rip),%r12        # 604e10 <__frame_dummy_init_array_entry>
  402e42:	55                   	push   %rbp
  402e43:	48 8d 2d ce 1f 20 00 	lea    0x201fce(%rip),%rbp        # 604e18 <__do_global_dtors_aux_fini_array_entry>
  402e4a:	53                   	push   %rbx
  402e4b:	49 89 f6             	mov    %rsi,%r14
  402e4e:	49 89 d5             	mov    %rdx,%r13
  402e51:	4c 29 e5             	sub    %r12,%rbp
  402e54:	48 83 ec 08          	sub    $0x8,%rsp
  402e58:	48 c1 fd 03          	sar    $0x3,%rbp
  402e5c:	e8 e7 dd ff ff       	callq  400c48 <_init>
  402e61:	48 85 ed             	test   %rbp,%rbp
  402e64:	74 20                	je     402e86 <__libc_csu_init+0x56>
  402e66:	31 db                	xor    %ebx,%ebx
  402e68:	0f 1f 84 00 00 00 00 	nopl   0x0(%rax,%rax,1)
  402e6f:	00 
  402e70:	4c 89 ea             	mov    %r13,%rdx
  402e73:	4c 89 f6             	mov    %r14,%rsi
  402e76:	44 89 ff             	mov    %r15d,%edi
  402e79:	41 ff 14 dc          	callq  *(%r12,%rbx,8)
  402e7d:	48 83 c3 01          	add    $0x1,%rbx
  402e81:	48 39 eb             	cmp    %rbp,%rbx
  402e84:	75 ea                	jne    402e70 <__libc_csu_init+0x40>
  402e86:	48 83 c4 08          	add    $0x8,%rsp
  402e8a:	5b                   	pop    %rbx
  402e8b:	5d                   	pop    %rbp
  402e8c:	41 5c                	pop    %r12
  402e8e:	41 5d                	pop    %r13
  402e90:	41 5e                	pop    %r14
  402e92:	41 5f                	pop    %r15
  402e94:	c3                   	retq   
  402e95:	90                   	nop
  402e96:	66 2e 0f 1f 84 00 00 	nopw   %cs:0x0(%rax,%rax,1)
  402e9d:	00 00 00 

0000000000402ea0 <__libc_csu_fini>:
  402ea0:	f3 c3                	repz retq 

Disassembly of section .fini:

0000000000402ea4 <_fini>:
  402ea4:	48 83 ec 08          	sub    $0x8,%rsp
  402ea8:	48 83 c4 08          	add    $0x8,%rsp
  402eac:	c3                   	retq   
